
core:     file format elf32-littlearm


Disassembly of section load1:

00010000 <load1>:
   10000:	464c457f 			; <UNDEFINED> instruction: 0x464c457f
   10004:	00010101 	andeq	r0, r1, r1, lsl #2
	...
   10010:	00280002 	eoreq	r0, r8, r2
   10014:	00000001 	andeq	r0, r0, r1
   10018:	000102f1 	strdeq	r0, [r1], -r1
   1001c:	00000034 	andeq	r0, r0, r4, lsr r0
   10020:	00001ff4 	strdeq	r1, [r0], -r4
   10024:	05000402 	streq	r0, [r0, #-1026]	; 0x402
   10028:	00200034 	eoreq	r0, r0, r4, lsr r0
   1002c:	00280008 	eoreq	r0, r8, r8
   10030:	00230026 	eoreq	r0, r3, r6, lsr #32
   10034:	70000001 	andvc	r0, r0, r1
   10038:	00000704 	andeq	r0, r0, r4, lsl #14
   1003c:	00010704 	andeq	r0, r1, r4, lsl #14
   10040:	00010704 	andeq	r0, r1, r4, lsl #14
   10044:	00000008 	andeq	r0, r0, r8
   10048:	00000008 	andeq	r0, r0, r8
   1004c:	00000004 	andeq	r0, r0, r4
   10050:	00000004 	andeq	r0, r0, r4
   10054:	00000006 	andeq	r0, r0, r6
   10058:	00000034 	andeq	r0, r0, r4, lsr r0
   1005c:	00010034 	andeq	r0, r1, r4, lsr r0
   10060:	00010034 	andeq	r0, r1, r4, lsr r0
   10064:	00000100 	andeq	r0, r0, r0, lsl #2
   10068:	00000100 	andeq	r0, r0, r0, lsl #2
   1006c:	00000005 	andeq	r0, r0, r5
   10070:	00000004 	andeq	r0, r0, r4
   10074:	00000003 	andeq	r0, r0, r3
   10078:	00000134 	andeq	r0, r0, r4, lsr r1
   1007c:	00010134 	andeq	r0, r1, r4, lsr r1
   10080:	00010134 	andeq	r0, r1, r4, lsr r1
   10084:	00000019 	andeq	r0, r0, r9, lsl r0
   10088:	00000019 	andeq	r0, r0, r9, lsl r0
   1008c:	00000004 	andeq	r0, r0, r4
   10090:	00000001 	andeq	r0, r0, r1
   10094:	00000001 	andeq	r0, r0, r1
   10098:	00000000 	andeq	r0, r0, r0
   1009c:	00010000 	andeq	r0, r1, r0
   100a0:	00010000 	andeq	r0, r1, r0
   100a4:	00000710 	andeq	r0, r0, r0, lsl r7
   100a8:	00000710 	andeq	r0, r0, r0, lsl r7
   100ac:	00000005 	andeq	r0, r0, r5
   100b0:	00010000 	andeq	r0, r1, r0
   100b4:	00000001 	andeq	r0, r0, r1
   100b8:	00000710 	andeq	r0, r0, r0, lsl r7
   100bc:	00020710 	andeq	r0, r2, r0, lsl r7
   100c0:	00020710 	andeq	r0, r2, r0, lsl r7
   100c4:	0000011c 	andeq	r0, r0, ip, lsl r1
   100c8:	00000120 	andeq	r0, r0, r0, lsr #2
   100cc:	00000006 	andeq	r0, r0, r6
   100d0:	00010000 	andeq	r0, r1, r0
   100d4:	00000002 	andeq	r0, r0, r2
   100d8:	0000071c 	andeq	r0, r0, ip, lsl r7
   100dc:	0002071c 	andeq	r0, r2, ip, lsl r7
   100e0:	0002071c 	andeq	r0, r2, ip, lsl r7
   100e4:	000000e8 	andeq	r0, r0, r8, ror #1
   100e8:	000000e8 	andeq	r0, r0, r8, ror #1
   100ec:	00000006 	andeq	r0, r0, r6
   100f0:	00000004 	andeq	r0, r0, r4
   100f4:	00000004 	andeq	r0, r0, r4
   100f8:	00000150 	andeq	r0, r0, r0, asr r1
   100fc:	00010150 	andeq	r0, r1, r0, asr r1
   10100:	00010150 	andeq	r0, r1, r0, asr r1
   10104:	00000044 	andeq	r0, r0, r4, asr #32
   10108:	00000044 	andeq	r0, r0, r4, asr #32
   1010c:	00000004 	andeq	r0, r0, r4
   10110:	00000004 	andeq	r0, r0, r4
   10114:	6474e551 	ldrbtvs	lr, [r4], #-1361	; 0x551
	...
   1012c:	00000006 	andeq	r0, r0, r6
   10130:	00000010 	andeq	r0, r0, r0, lsl r0
   10134:	62696c2f 	rsbvs	r6, r9, #12032	; 0x2f00
   10138:	2d646c2f 	stclcs	12, cr6, [r4, #-188]!	; 0xffffff44
   1013c:	756e696c 	strbvc	r6, [lr, #-2412]!	; 0x96c
   10140:	72612d78 	rsbvc	r2, r1, #120, 26	; 0x1e00
   10144:	2e66686d 	cdpcs	8, 6, cr6, cr6, cr13, {3}
   10148:	332e6f73 	teqcc	lr, #460	; 0x1cc
   1014c:	00000000 	andeq	r0, r0, r0
   10150:	00000004 	andeq	r0, r0, r4
   10154:	00000010 	andeq	r0, r0, r0, lsl r0
   10158:	00000001 	andeq	r0, r0, r1
   1015c:	00554e47 	subseq	r4, r5, r7, asr #28
   10160:	00000000 	andeq	r0, r0, r0
   10164:	00000002 	andeq	r0, r0, r2
   10168:	00000006 	andeq	r0, r0, r6
   1016c:	0000001f 	andeq	r0, r0, pc, lsl r0
   10170:	00000004 	andeq	r0, r0, r4
   10174:	00000014 	andeq	r0, r0, r4, lsl r0
   10178:	00000003 	andeq	r0, r0, r3
   1017c:	00554e47 	subseq	r4, r5, r7, asr #28
   10180:	654a183d 	strbvs	r1, [sl, #-2109]	; 0x83d
   10184:	686f7b44 	stmdavs	pc!, {r2, r6, r8, r9, fp, ip, sp, lr}^	; <UNPREDICTABLE>
   10188:	f9765d96 			; <UNDEFINED> instruction: 0xf9765d96
   1018c:	f483e444 	vst1.16	{d14[1]}, [r3], r4
   10190:	2cbb0640 	ldccs	6, cr0, [fp], #256	; 0x100
   10194:	00000003 	andeq	r0, r0, r3
   10198:	00000005 	andeq	r0, r0, r5
   1019c:	00000003 	andeq	r0, r0, r3
   101a0:	00000002 	andeq	r0, r0, r2
   101a4:	00000004 	andeq	r0, r0, r4
	...
   101b0:	00000001 	andeq	r0, r0, r1
	...
   101cc:	00000011 	andeq	r0, r0, r1, lsl r0
	...
   101d8:	00000012 	andeq	r0, r0, r2, lsl r0
   101dc:	00000017 	andeq	r0, r0, r7, lsl r0
	...
   101e8:	00000012 	andeq	r0, r0, r2, lsl r0
   101ec:	00000029 	andeq	r0, r0, r9, lsr #32
	...
   101f8:	00000020 	andeq	r0, r0, r0, lsr #32
   101fc:	0000000b 	andeq	r0, r0, fp
	...
   10208:	00000012 	andeq	r0, r0, r2, lsl r0
   1020c:	62696c00 	rsbvs	r6, r9, #0, 24
   10210:	6f732e63 	svcvs	0x00732e63
   10214:	6100362e 	tstvs	r0, lr, lsr #12
   10218:	74726f62 	ldrbtvc	r6, [r2], #-3938	; 0xf62
   1021c:	69617200 	stmdbvs	r1!, {r9, ip, sp, lr}^
   10220:	5f006573 	svcpl	0x00006573
   10224:	62696c5f 	rsbvs	r6, r9, #24320	; 0x5f00
   10228:	74735f63 	ldrbtvc	r5, [r3], #-3939	; 0xf63
   1022c:	5f747261 	svcpl	0x00747261
   10230:	6e69616d 	powvsez	f6, f1, #5.0
   10234:	675f5f00 	ldrbvs	r5, [pc, -r0, lsl #30]
   10238:	5f6e6f6d 	svcpl	0x006e6f6d
   1023c:	72617473 	rsbvc	r7, r1, #1929379840	; 0x73000000
   10240:	005f5f74 	subseq	r5, pc, r4, ror pc	; <UNPREDICTABLE>
   10244:	42494c47 	submi	r4, r9, #18176	; 0x4700
   10248:	2e325f43 	cdpcs	15, 3, cr5, cr2, cr3, {2}
   1024c:	00000034 	andeq	r0, r0, r4, lsr r0
   10250:	00020002 	andeq	r0, r2, r2
   10254:	00020000 	andeq	r0, r2, r0
   10258:	00010001 	andeq	r0, r1, r1
   1025c:	00000001 	andeq	r0, r0, r1
   10260:	00000010 	andeq	r0, r0, r0, lsl r0
   10264:	00000000 	andeq	r0, r0, r0
   10268:	0d696914 	stcleq	9, cr6, [r9, #-80]!	; 0xffffffb0
   1026c:	00020000 	andeq	r0, r2, r0
   10270:	00000038 	andeq	r0, r0, r8, lsr r0
   10274:	00000000 	andeq	r0, r0, r0
   10278:	00020820 	andeq	r0, r2, r0, lsr #16
   1027c:	00000315 	andeq	r0, r0, r5, lsl r3
   10280:	00020810 	andeq	r0, r2, r0, lsl r8
   10284:	00000116 	andeq	r0, r0, r6, lsl r1
   10288:	00020814 	andeq	r0, r2, r4, lsl r8
   1028c:	00000216 	andeq	r0, r0, r6, lsl r2
   10290:	00020818 	andeq	r0, r2, r8, lsl r8
   10294:	00000316 	andeq	r0, r0, r6, lsl r3
   10298:	0002081c 	andeq	r0, r2, ip, lsl r8
   1029c:	00000416 	andeq	r0, r0, r6, lsl r4
   102a0:	e92d4008 	push	{r3, lr}
   102a4:	eb00001d 	bl	0x10320
   102a8:	e8bd8008 	pop	{r3, pc}
   102ac:	e52de004 	push	{lr}		; (str lr, [sp, #-4]!)
   102b0:	e59fe004 	ldr	lr, [pc, #4]	; 0x102bc
   102b4:	e08fe00e 	add	lr, pc, lr
   102b8:	e5bef008 	ldr	pc, [lr, #8]!
   102bc:	00010548 	andeq	r0, r1, r8, asr #10
   102c0:	e28fc600 	add	ip, pc, #0, 12
   102c4:	e28cca10 	add	ip, ip, #16, 20	; 0x10000
   102c8:	e5bcf548 	ldr	pc, [ip, #1352]!	; 0x548
   102cc:	e28fc600 	add	ip, pc, #0, 12
   102d0:	e28cca10 	add	ip, ip, #16, 20	; 0x10000
   102d4:	e5bcf540 	ldr	pc, [ip, #1344]!	; 0x540
   102d8:	e28fc600 	add	ip, pc, #0, 12
   102dc:	e28cca10 	add	ip, ip, #16, 20	; 0x10000
   102e0:	e5bcf538 	ldr	pc, [ip, #1336]!	; 0x538
   102e4:	e28fc600 	add	ip, pc, #0, 12
   102e8:	e28cca10 	add	ip, ip, #16, 20	; 0x10000
   102ec:	e5bcf530 	ldr	pc, [ip, #1328]!	; 0x530
   102f0:	0b00f04f 	bleq	0x4c434
   102f4:	0e00f04f 	cdpeq	0, 0, cr15, cr0, cr15, {2}
   102f8:	466abc02 	strbtmi	fp, [sl], -r2, lsl #24
   102fc:	b401b404 	strlt	fp, [r1], #-1028	; 0x404
   10300:	c010f8df 			; <UNDEFINED> instruction: 0xc010f8df
   10304:	cd04f84d 	stcgt	8, cr15, [r4, #-308]	; 0xfffffecc
   10308:	4b044803 	blmi	0x12231c
   1030c:	efdef7ff 	svc	0x00def7ff
   10310:	efe8f7ff 	svc	0x00e8f7ff
   10314:	000106f5 	strdeq	r0, [r1], -r5
   10318:	000103d1 	ldrdeq	r0, [r1], -r1
   1031c:	000106b5 			; <UNDEFINED> instruction: 0x000106b5
   10320:	e59f3014 	ldr	r3, [pc, #20]	; 0x1033c
   10324:	e59f2014 	ldr	r2, [pc, #20]	; 0x10340
   10328:	e08f3003 	add	r3, pc, r3
   1032c:	e7932002 	ldr	r2, [r3, r2]
   10330:	e3520000 	cmp	r2, #0
   10334:	012fff1e 	bxeq	lr
   10338:	eaffffe6 	b	0x102d8
   1033c:	000104d4 	ldrdeq	r0, [r1], -r4
   10340:	0000001c 	andeq	r0, r0, ip, lsl r0
   10344:	f6404b07 			; <UNDEFINED> instruction: 0xf6404b07
   10348:	f2c0002c 	vaddl.s8	q8, d0, d28
   1034c:	1a1b0002 	bne	0x6d035c
   10350:	d9052b06 	stmdble	r5, {r1, r2, r8, r9, fp, sp}
   10354:	0300f240 	movweq	pc, #576	; 0x240	; <UNPREDICTABLE>
   10358:	0300f2c0 	movweq	pc, #704	; 0x2c0	; <UNPREDICTABLE>
   1035c:	4718b103 	ldrmi	fp, [r8, -r3, lsl #2]
   10360:	bf004770 	svclt	0x00004770
   10364:	0002082f 	andeq	r0, r2, pc, lsr #16
   10368:	032cf640 	msreq	CPSR_fs, #64, 12	; 0x4000000
   1036c:	002cf640 	eoreq	pc, ip, r0, asr #12
   10370:	0302f2c0 	movweq	pc, #8896	; 0x22c0	; <UNPREDICTABLE>
   10374:	0002f2c0 	andeq	pc, r2, r0, asr #5
   10378:	10891a19 	addne	r1, r9, r9, lsl sl
   1037c:	71d1eb01 	bicsvc	lr, r1, r1, lsl #22
   10380:	d0051049 	andle	r1, r5, r9, asr #32
   10384:	0300f240 	movweq	pc, #576	; 0x240	; <UNPREDICTABLE>
   10388:	0300f2c0 	movweq	pc, #704	; 0x2c0	; <UNPREDICTABLE>
   1038c:	4718b103 	ldrmi	fp, [r8, -r3, lsl #2]
   10390:	bf004770 	svclt	0x00004770
   10394:	f640b510 			; <UNDEFINED> instruction: 0xf640b510
   10398:	f2c0042c 	vaddhn.i16	d16, q0, q14
   1039c:	78230402 	stmdavc	r3!, {r1, sl}
   103a0:	f7ffb91b 			; <UNDEFINED> instruction: 0xf7ffb91b
   103a4:	2301ffcf 	movwcs	pc, #8143	; 0x1fcf	; <UNPREDICTABLE>
   103a8:	bd107023 	ldclt	0, cr7, [r0, #-140]	; 0xffffff74
   103ac:	7018f240 	andsvc	pc, r8, r0, asr #4
   103b0:	f2c0b508 	vabal.s8	<illegal reg q13.5>, d0, d8
   103b4:	68030002 	stmdavs	r3, {r1}
   103b8:	e8bdb913 	pop	{r0, r1, r4, r8, fp, ip, sp, pc}
   103bc:	e7d34008 	ldrb	r4, [r3, r8]
   103c0:	0300f240 	movweq	pc, #576	; 0x240	; <UNPREDICTABLE>
   103c4:	0300f2c0 	movweq	pc, #704	; 0x2c0	; <UNPREDICTABLE>
   103c8:	d0f62b00 	rscsle	r2, r6, r0, lsl #22
   103cc:	e7f44798 			; <UNDEFINED> instruction: 0xe7f44798
   103d0:	b086b580 	addlt	fp, r6, r0, lsl #11
   103d4:	6078af00 	rsbsvs	sl, r8, r0, lsl #30
   103d8:	23026039 	movwcs	r6, #8249	; 0x2039
   103dc:	2300617b 	movwcs	r6, #379	; 0x17b
   103e0:	6939613b 	ldmdbvs	r9!, {r0, r1, r3, r4, r5, r8, sp, lr}
   103e4:	f0006978 			; <UNDEFINED> instruction: 0xf0006978
   103e8:	4603f807 	strmi	pc, [r3], -r7, lsl #16
   103ec:	230060fb 	movwcs	r6, #251	; 0xfb
   103f0:	37184618 			; <UNDEFINED> instruction: 0x37184618
   103f4:	bd8046bd 	stclt	6, cr4, [r0, #756]	; 0x2f4
   103f8:	f0002900 			; <UNDEFINED> instruction: 0xf0002900
   103fc:	ea80813e 	b	0xfe0308fc
   10400:	bf480c01 	svclt	0x00480c01
   10404:	1e4a4249 	cdpne	2, 4, cr4, cr10, cr9, {2}
   10408:	811ff000 	tsthi	pc, r0
   1040c:	bf480003 	svclt	0x00480003
   10410:	428b4243 	addmi	r4, fp, #805306372	; 0x30000004
   10414:	811ef240 	tsthi	lr, r0, asr #4
   10418:	f0004211 			; <UNDEFINED> instruction: 0xf0004211
   1041c:	fab38123 	blx	0xfecf08b0
   10420:	fab1f283 	blx	0xfec8ce34
   10424:	eba0f081 	bl	0xfe84c630
   10428:	f1c20202 			; <UNDEFINED> instruction: 0xf1c20202
   1042c:	a004021f 	andge	r0, r4, pc, lsl r2
   10430:	1202eb00 	andne	lr, r2, #0, 22
   10434:	0000f04f 	andeq	pc, r0, pc, asr #32
   10438:	bf004697 	svclt	0x00004697
   1043c:	8000f3af 	andhi	pc, r0, pc, lsr #7
   10440:	7fc1ebb3 	svcvc	0x00c1ebb3
   10444:	eb40bf00 	bl	0x104004c
   10448:	bf280000 	svclt	0x00280000
   1044c:	73c1eba3 	bicvc	lr, r1, #166912	; 0x28c00
   10450:	7f81ebb3 	svcvc	0x0081ebb3
   10454:	eb40bf00 	bl	0x104005c
   10458:	bf280000 	svclt	0x00280000
   1045c:	7381eba3 	orrvc	lr, r1, #166912	; 0x28c00
   10460:	7f41ebb3 	svcvc	0x0041ebb3
   10464:	eb40bf00 	bl	0x104006c
   10468:	bf280000 	svclt	0x00280000
   1046c:	7341eba3 	movtvc	lr, #7075	; 0x1ba3
   10470:	7f01ebb3 	svcvc	0x0001ebb3
   10474:	eb40bf00 	bl	0x104007c
   10478:	bf280000 	svclt	0x00280000
   1047c:	7301eba3 	movwvc	lr, #7075	; 0x1ba3
   10480:	6fc1ebb3 	svcvs	0x00c1ebb3
   10484:	eb40bf00 	bl	0x104008c
   10488:	bf280000 	svclt	0x00280000
   1048c:	63c1eba3 	bicvs	lr, r1, #166912	; 0x28c00
   10490:	6f81ebb3 	svcvs	0x0081ebb3
   10494:	eb40bf00 	bl	0x104009c
   10498:	bf280000 	svclt	0x00280000
   1049c:	6381eba3 	orrvs	lr, r1, #166912	; 0x28c00
   104a0:	6f41ebb3 	svcvs	0x0041ebb3
   104a4:	eb40bf00 	bl	0x10400ac
   104a8:	bf280000 	svclt	0x00280000
   104ac:	6341eba3 	movtvs	lr, #7075	; 0x1ba3
   104b0:	6f01ebb3 	svcvs	0x0001ebb3
   104b4:	eb40bf00 	bl	0x10400bc
   104b8:	bf280000 	svclt	0x00280000
   104bc:	6301eba3 	movwvs	lr, #7075	; 0x1ba3
   104c0:	5fc1ebb3 	svcpl	0x00c1ebb3
   104c4:	eb40bf00 	bl	0x10400cc
   104c8:	bf280000 	svclt	0x00280000
   104cc:	53c1eba3 	bicpl	lr, r1, #166912	; 0x28c00
   104d0:	5f81ebb3 	svcpl	0x0081ebb3
   104d4:	eb40bf00 	bl	0x10400dc
   104d8:	bf280000 	svclt	0x00280000
   104dc:	5381eba3 	orrpl	lr, r1, #166912	; 0x28c00
   104e0:	5f41ebb3 	svcpl	0x0041ebb3
   104e4:	eb40bf00 	bl	0x10400ec
   104e8:	bf280000 	svclt	0x00280000
   104ec:	5341eba3 	movtpl	lr, #7075	; 0x1ba3
   104f0:	5f01ebb3 	svcpl	0x0001ebb3
   104f4:	eb40bf00 	bl	0x10400fc
   104f8:	bf280000 	svclt	0x00280000
   104fc:	5301eba3 	movwpl	lr, #7075	; 0x1ba3
   10500:	4fc1ebb3 	svcmi	0x00c1ebb3
   10504:	eb40bf00 	bl	0x104010c
   10508:	bf280000 	svclt	0x00280000
   1050c:	43c1eba3 	bicmi	lr, r1, #166912	; 0x28c00
   10510:	4f81ebb3 	svcmi	0x0081ebb3
   10514:	eb40bf00 	bl	0x104011c
   10518:	bf280000 	svclt	0x00280000
   1051c:	4381eba3 	orrmi	lr, r1, #166912	; 0x28c00
   10520:	4f41ebb3 	svcmi	0x0041ebb3
   10524:	eb40bf00 	bl	0x104012c
   10528:	bf280000 	svclt	0x00280000
   1052c:	4341eba3 	movtmi	lr, #7075	; 0x1ba3
   10530:	4f01ebb3 	svcmi	0x0001ebb3
   10534:	eb40bf00 	bl	0x104013c
   10538:	bf280000 	svclt	0x00280000
   1053c:	4301eba3 	movwmi	lr, #7075	; 0x1ba3
   10540:	3fc1ebb3 	svccc	0x00c1ebb3
   10544:	eb40bf00 	bl	0x104014c
   10548:	bf280000 	svclt	0x00280000
   1054c:	33c1eba3 	biccc	lr, r1, #166912	; 0x28c00
   10550:	3f81ebb3 	svccc	0x0081ebb3
   10554:	eb40bf00 	bl	0x104015c
   10558:	bf280000 	svclt	0x00280000
   1055c:	3381eba3 	orrcc	lr, r1, #166912	; 0x28c00
   10560:	3f41ebb3 	svccc	0x0041ebb3
   10564:	eb40bf00 	bl	0x104016c
   10568:	bf280000 	svclt	0x00280000
   1056c:	3341eba3 	movtcc	lr, #7075	; 0x1ba3
   10570:	3f01ebb3 	svccc	0x0001ebb3
   10574:	eb40bf00 	bl	0x104017c
   10578:	bf280000 	svclt	0x00280000
   1057c:	3301eba3 	movwcc	lr, #7075	; 0x1ba3
   10580:	2fc1ebb3 	svccs	0x00c1ebb3
   10584:	eb40bf00 	bl	0x104018c
   10588:	bf280000 	svclt	0x00280000
   1058c:	23c1eba3 	biccs	lr, r1, #166912	; 0x28c00
   10590:	2f81ebb3 	svccs	0x0081ebb3
   10594:	eb40bf00 	bl	0x104019c
   10598:	bf280000 	svclt	0x00280000
   1059c:	2381eba3 	orrcs	lr, r1, #166912	; 0x28c00
   105a0:	2f41ebb3 	svccs	0x0041ebb3
   105a4:	eb40bf00 	bl	0x10401ac
   105a8:	bf280000 	svclt	0x00280000
   105ac:	2341eba3 	movtcs	lr, #7075	; 0x1ba3
   105b0:	2f01ebb3 	svccs	0x0001ebb3
   105b4:	eb40bf00 	bl	0x10401bc
   105b8:	bf280000 	svclt	0x00280000
   105bc:	2301eba3 	movwcs	lr, #7075	; 0x1ba3
   105c0:	1fc1ebb3 	svcne	0x00c1ebb3
   105c4:	eb40bf00 	bl	0x10401cc
   105c8:	bf280000 	svclt	0x00280000
   105cc:	13c1eba3 	bicne	lr, r1, #166912	; 0x28c00
   105d0:	1f81ebb3 	svcne	0x0081ebb3
   105d4:	eb40bf00 	bl	0x10401dc
   105d8:	bf280000 	svclt	0x00280000
   105dc:	1381eba3 	orrne	lr, r1, #166912	; 0x28c00
   105e0:	1f41ebb3 	svcne	0x0041ebb3
   105e4:	eb40bf00 	bl	0x10401ec
   105e8:	bf280000 	svclt	0x00280000
   105ec:	1341eba3 	movtne	lr, #7075	; 0x1ba3
   105f0:	1f01ebb3 	svcne	0x0001ebb3
   105f4:	eb40bf00 	bl	0x10401fc
   105f8:	bf280000 	svclt	0x00280000
   105fc:	1301eba3 	movwne	lr, #7075	; 0x1ba3
   10600:	0fc1ebb3 	svceq	0x00c1ebb3
   10604:	eb40bf00 	bl	0x104020c
   10608:	bf280000 	svclt	0x00280000
   1060c:	03c1eba3 	biceq	lr, r1, #166912	; 0x28c00
   10610:	0f81ebb3 	svceq	0x0081ebb3
   10614:	eb40bf00 	bl	0x104021c
   10618:	bf280000 	svclt	0x00280000
   1061c:	0381eba3 	orreq	lr, r1, #166912	; 0x28c00
   10620:	0f41ebb3 	svceq	0x0041ebb3
   10624:	eb40bf00 	bl	0x104022c
   10628:	bf280000 	svclt	0x00280000
   1062c:	0341eba3 	movteq	lr, #7075	; 0x1ba3
   10630:	0f01ebb3 	svceq	0x0001ebb3
   10634:	eb40bf00 	bl	0x104023c
   10638:	bf280000 	svclt	0x00280000
   1063c:	0301eba3 	movweq	lr, #7075	; 0x1ba3
   10640:	0f00f1bc 	svceq	0x0000f1bc
   10644:	4240bf48 	submi	fp, r0, #72, 30	; 0x120
   10648:	ea9c4770 	b	0xfe722410
   1064c:	bf480f00 	svclt	0x00480f00
   10650:	47704240 	ldrbmi	r4, [r0, -r0, asr #4]!
   10654:	2000bf38 	andcs	fp, r0, r8, lsr pc
   10658:	ea4fbf04 	b	0x1400270
   1065c:	f04070ec 			; <UNDEFINED> instruction: 0xf04070ec
   10660:	47700001 	ldrbmi	r0, [r0, -r1]!
   10664:	f281fab1 			; <UNDEFINED> instruction: 0xf281fab1
   10668:	021ff1c2 	andseq	pc, pc, #-2147483600	; 0x80000030
   1066c:	0f00f1bc 	svceq	0x0000f1bc
   10670:	f002fa23 			; <UNDEFINED> instruction: 0xf002fa23
   10674:	4240bf48 	submi	fp, r0, #72, 30	; 0x120
   10678:	28004770 	stmdacs	r0, {r4, r5, r6, r8, r9, sl, lr}
   1067c:	f06fbfc8 			; <UNDEFINED> instruction: 0xf06fbfc8
   10680:	bfb84000 	svclt	0x00b84000
   10684:	4000f04f 	andmi	pc, r0, pc, asr #32
   10688:	b80ef000 	stmdalt	lr, {ip, sp, lr, pc}
   1068c:	d0f42900 	rscsle	r2, r4, r0, lsl #18
   10690:	4003e92d 	andmi	lr, r3, sp, lsr #18
   10694:	feb3f7ff 	mrc2	7, 5, pc, cr3, cr15, {7}
   10698:	4006e8bd 			; <UNDEFINED> instruction: 0x4006e8bd
   1069c:	f300fb02 	vqrdmulh.s<illegal width 8>	d15, d0, d2
   106a0:	0103eba1 	smlatbeq	r3, r1, fp, lr
   106a4:	bf004770 	svclt	0x00004770
   106a8:	f04fb502 			; <UNDEFINED> instruction: 0xf04fb502
   106ac:	f7ff0008 			; <UNDEFINED> instruction: 0xf7ff0008
   106b0:	bd02ee08 	stclt	14, cr14, [r2, #-32]	; 0xffffffe0
   106b4:	43f8e92d 	mvnsmi	lr, #737280	; 0xb4000
   106b8:	4d0c4606 	stcmi	6, cr4, [ip, #-24]	; 0xffffffe8
   106bc:	4690460f 	ldrmi	r4, [r0], pc, lsl #12
   106c0:	902cf8df 	ldrdls	pc, [ip], -pc	; <UNPREDICTABLE>
   106c4:	f7ff447d 			; <UNDEFINED> instruction: 0xf7ff447d
   106c8:	44f9edec 	ldrbtmi	lr, [r9], #3564	; 0xdec
   106cc:	0505ebc9 	streq	lr, [r5, #-3017]	; 0xbc9
   106d0:	d00910ad 	andle	r1, r9, sp, lsr #1
   106d4:	f8592400 			; <UNDEFINED> instruction: 0xf8592400
   106d8:	46423024 	strbmi	r3, [r2], -r4, lsr #32
   106dc:	46393401 	ldrtmi	r3, [r9], -r1, lsl #8
   106e0:	47984630 			; <UNDEFINED> instruction: 0x47984630
   106e4:	d1f642ac 	mvnsle	r4, ip, lsr #5
   106e8:	83f8e8bd 	mvnshi	lr, #12386304	; 0xbd0000
   106ec:	0001004c 	andeq	r0, r1, ip, asr #32
   106f0:	00010042 	andeq	r0, r1, r2, asr #32
   106f4:	bf004770 	svclt	0x00004770
   106f8:	e92d4008 	push	{r3, lr}
   106fc:	e8bd8008 	pop	{r3, pc}
   10700:	00020001 	andeq	r0, r2, r1
   10704:	7ffffbec 	svcvc	0x00fffbec
   10708:	00000001 	andeq	r0, r0, r1
   1070c:	00000000 	andeq	r0, r0, r0
   10710:	000103ad 	andeq	r0, r1, sp, lsr #7
   10714:	00010395 	muleq	r1, r5, r3
   10718:	00000000 	andeq	r0, r0, r0
   1071c:	00000001 	andeq	r0, r0, r1
   10720:	00000001 	andeq	r0, r0, r1
   10724:	0000000c 	andeq	r0, r0, ip
   10728:	000102a0 	andeq	r0, r1, r0, lsr #5
   1072c:	0000000d 	andeq	r0, r0, sp
   10730:	000106f8 	strdeq	r0, [r1], -r8
   10734:	00000019 	andeq	r0, r0, r9, lsl r0
   10738:	00020710 	andeq	r0, r2, r0, lsl r7
   1073c:	0000001b 	andeq	r0, r0, fp, lsl r0
   10740:	00000004 	andeq	r0, r0, r4
   10744:	0000001a 	andeq	r0, r0, sl, lsl r0
   10748:	00020714 	andeq	r0, r2, r4, lsl r7
   1074c:	0000001c 	andeq	r0, r0, ip, lsl r0
   10750:	00000004 	andeq	r0, r0, r4
   10754:	00000004 	andeq	r0, r0, r4
   10758:	00010194 	muleq	r1, r4, r1
   1075c:	00000005 	andeq	r0, r0, r5
   10760:	0001020c 	andeq	r0, r1, ip, lsl #4
   10764:	00000006 	andeq	r0, r0, r6
   10768:	000101bc 			; <UNDEFINED> instruction: 0x000101bc
   1076c:	0000000a 	andeq	r0, r0, sl
   10770:	00000042 	andeq	r0, r0, r2, asr #32
   10774:	0000000b 	andeq	r0, r0, fp
   10778:	00000010 	andeq	r0, r0, r0, lsl r0
   1077c:	00000015 	andeq	r0, r0, r5, lsl r0
   10780:	00000000 	andeq	r0, r0, r0
   10784:	00000003 	andeq	r0, r0, r3
   10788:	00020804 	andeq	r0, r2, r4, lsl #16
   1078c:	00000002 	andeq	r0, r0, r2
   10790:	00000020 	andeq	r0, r0, r0, lsr #32
   10794:	00000014 	andeq	r0, r0, r4, lsl r0
   10798:	00000011 	andeq	r0, r0, r1, lsl r0
   1079c:	00000017 	andeq	r0, r0, r7, lsl r0
   107a0:	00010280 	andeq	r0, r1, r0, lsl #5
   107a4:	00000011 	andeq	r0, r0, r1, lsl r0
   107a8:	00010278 	andeq	r0, r1, r8, ror r2
   107ac:	00000012 	andeq	r0, r0, r2, lsl r0
   107b0:	00000008 	andeq	r0, r0, r8
   107b4:	00000013 	andeq	r0, r0, r3, lsl r0
   107b8:	00000008 	andeq	r0, r0, r8
   107bc:	6ffffffe 	svcvs	0x00fffffe
   107c0:	00010258 	andeq	r0, r1, r8, asr r2
   107c4:	6fffffff 	svcvs	0x00ffffff
   107c8:	00000001 	andeq	r0, r0, r1
   107cc:	6ffffff0 	svcvs	0x00fffff0
   107d0:	0001024e 	andeq	r0, r1, lr, asr #4
	...
   10804:	0002071c 	andeq	r0, r2, ip, lsl r7
	...
   10810:	000102ac 	andeq	r0, r1, ip, lsr #5
   10814:	000102ac 	andeq	r0, r1, ip, lsr #5
   10818:	000102ac 	andeq	r0, r1, ip, lsr #5
   1081c:	000102ac 	andeq	r0, r1, ip, lsr #5
	...
   1082c:	3a434347 	bcc	0x10e1550
   10830:	694c2820 	stmdbvs	ip, {r5, fp, sp}^
   10834:	6f72616e 	svcvs	0x0072616e
   10838:	43434720 	movtmi	r4, #14112	; 0x3720
   1083c:	392e3420 	stmdbcc	lr!, {r5, sl, ip, sp}
   10840:	3130322d 	teqcc	r0, sp, lsr #4
   10844:	31302e37 	teqcc	r0, r7, lsr lr
   10848:	2e342029 	cdpcs	0, 3, cr2, cr4, cr9, {1}
   1084c:	00342e39 	eorseq	r2, r4, r9, lsr lr
   10850:	00003441 	andeq	r3, r0, r1, asr #8
   10854:	61656100 	cmnvs	r5, r0, lsl #2
   10858:	01006962 	tsteq	r0, r2, ror #18
   1085c:	0000002a 	andeq	r0, r0, sl, lsr #32
   10860:	412d3705 	teqmi	sp, r5, lsl #14
   10864:	070a0600 	streq	r0, [sl, -r0, lsl #12]
   10868:	09010841 	stmdbeq	r1, {r0, r6, fp}
   1086c:	12040a02 	andne	r0, r4, #8192	; 0x2000
   10870:	14011304 	strne	r1, [r1], #-772	; 0x304
   10874:	17011501 	strne	r1, [r1, -r1, lsl #10]
   10878:	19011803 	stmdbne	r1, {r0, r1, fp, ip}
   1087c:	1b021a01 	blne	0x97088
   10880:	22011c03 	andcs	r1, r1, #768	; 0x300
   10884:	00000001 	andeq	r0, r0, r1
   10888:	0000001c 	andeq	r0, r0, ip, lsl r0
   1088c:	00000002 	andeq	r0, r0, r2
   10890:	00040000 	andeq	r0, r4, r0
   10894:	00000000 	andeq	r0, r0, r0
   10898:	000102f0 	strdeq	r0, [r1], -r0	; <UNPREDICTABLE>
   1089c:	00000030 	andeq	r0, r0, r0, lsr r0
	...
   108a8:	00000014 	andeq	r0, r0, r4, lsl r0
   108ac:	00e80002 	rsceq	r0, r8, r2
   108b0:	00040000 	andeq	r0, r4, r0
	...
   108c0:	0000002c 	andeq	r0, r0, ip, lsr #32
   108c4:	01700002 	cmneq	r0, r2
   108c8:	00040000 	andeq	r0, r4, r0
   108cc:	00000000 	andeq	r0, r0, r0
   108d0:	00010320 	andeq	r0, r1, r0, lsr #6
   108d4:	00000024 	andeq	r0, r0, r4, lsr #32
   108d8:	000102a0 	andeq	r0, r1, r0, lsr #5
   108dc:	00000008 	andeq	r0, r0, r8
   108e0:	000106f8 	strdeq	r0, [r1], -r8
   108e4:	00000004 	andeq	r0, r0, r4
	...
   108f0:	0000001c 	andeq	r0, r0, ip, lsl r0
   108f4:	02530002 	subseq	r0, r3, #2
   108f8:	00040000 	andeq	r0, r4, r0
   108fc:	00000000 	andeq	r0, r0, r0
   10900:	000103d0 	ldrdeq	r0, [r1], -r0	; <UNPREDICTABLE>
   10904:	00000028 	andeq	r0, r0, r8, lsr #32
	...
   10910:	0000001c 	andeq	r0, r0, ip, lsl r0
   10914:	03350002 	teqeq	r5, #2
   10918:	00040000 	andeq	r0, r4, r0
   1091c:	00000000 	andeq	r0, r0, r0
   10920:	000103f8 	strdeq	r0, [r1], -r8
   10924:	000002ae 	andeq	r0, r0, lr, lsr #5
	...
   10930:	0000001c 	andeq	r0, r0, ip, lsl r0
   10934:	04f40002 	ldrbteq	r0, [r4], #2
   10938:	00040000 	andeq	r0, r4, r0
   1093c:	00000000 	andeq	r0, r0, r0
   10940:	000106a8 	andeq	r0, r1, r8, lsr #13
   10944:	0000000c 	andeq	r0, r0, ip
	...
   10950:	0000001c 	andeq	r0, r0, ip, lsl r0
   10954:	06b30002 	ldrteq	r0, [r3], r2
   10958:	00040000 	andeq	r0, r4, r0
   1095c:	00000000 	andeq	r0, r0, r0
   10960:	000106b4 			; <UNDEFINED> instruction: 0x000106b4
   10964:	00000042 	andeq	r0, r0, r2, asr #32
	...
   10970:	00000024 	andeq	r0, r0, r4, lsr #32
   10974:	07e40002 	strbeq	r0, [r4, r2]!
   10978:	00040000 	andeq	r0, r4, r0
   1097c:	00000000 	andeq	r0, r0, r0
   10980:	000102a8 	andeq	r0, r1, r8, lsr #5
   10984:	00000004 	andeq	r0, r0, r4
   10988:	000106fc 	strdeq	r0, [r1], -ip
   1098c:	00000004 	andeq	r0, r0, r4
	...
   10998:	000000e4 	andeq	r0, r0, r4, ror #1
   1099c:	00000002 	andeq	r0, r0, r2
   109a0:	01040000 	mrseq	r0, (UNDEF: 4)
   109a4:	00000000 	andeq	r0, r0, r0
   109a8:	000102f0 	strdeq	r0, [r1], -r0	; <UNPREDICTABLE>
   109ac:	00010320 	andeq	r0, r1, r0, lsr #6
   109b0:	702f2e2e 	eorvc	r2, pc, lr, lsr #28
   109b4:	7374726f 	cmnvc	r4, #-268435450	; 0xf0000006
   109b8:	7379732f 	cmnvc	r9, #-1140850688	; 0xbc000000
   109bc:	73706564 	cmnvc	r0, #100, 10	; 0x19000000
   109c0:	6d72612f 	ldfvse	f6, [r2, #-188]!	; 0xffffff44
   109c4:	6174732f 	cmnvs	r4, pc, lsr #6
   109c8:	532e7472 	teqpl	lr, #1912602624	; 0x72000000
   109cc:	6f682f00 	svcvs	0x00682f00
   109d0:	742f656d 	strtvc	r6, [pc], #-1389	; 0x109d8
   109d4:	2d677763 	stclcs	7, cr7, [r7, #-396]!	; 0xfffffe74
   109d8:	6c697562 	cfstr64vs	mvdx7, [r9], #-392	; 0xfffffe78
   109dc:	616c7364 	cmnvs	ip, r4, ror #6
   109e0:	772f6576 			; <UNDEFINED> instruction: 0x772f6576
   109e4:	736b726f 	cmnvc	fp, #-268435450	; 0xf0000006
   109e8:	65636170 	strbvs	r6, [r3, #-368]!	; 0x170
   109ec:	7763742f 	strbvc	r7, [r3, -pc, lsr #8]!
   109f0:	616d2d67 	cmnvs	sp, r7, ror #26
   109f4:	722d656b 	eorvc	r6, sp, #448790528	; 0x1ac00000
   109f8:	61656c65 	cmnvs	r5, r5, ror #24
   109fc:	6c2f6573 	cfstr32vs	mvfx6, [pc], #-460	; 0x10838
   10a00:	6c656261 	sfmvs	f6, 2, [r5], #-388	; 0xfffffe7c
   10a04:	636f642f 	cmnvs	pc, #788529152	; 0x2f000000
   10a08:	2d72656b 	cfldr64cs	mvdx6, [r2, #-428]!	; 0xfffffe54
   10a0c:	73757274 	cmnvc	r5, #116, 4	; 0x40000007
   10a10:	612d7974 	teqvs	sp, r4, ror r9
   10a14:	3436646d 	ldrtcc	r6, [r6], #-1133	; 0x46d
   10a18:	7763742d 	strbvc	r7, [r3, -sp, lsr #8]!
   10a1c:	75622d67 	strbvc	r2, [r2, #-3431]!	; 0xd67
   10a20:	2f646c69 	svccs	0x00646c69
   10a24:	67726174 			; <UNDEFINED> instruction: 0x67726174
   10a28:	612f7465 	teqvs	pc, r5, ror #8
   10a2c:	6c2d6d72 	stcvs	13, cr6, [sp], #-456	; 0xfffffe38
   10a30:	78756e69 	ldmdavc	r5!, {r0, r3, r5, r6, r9, sl, fp, sp, lr}^
   10a34:	756e672d 	strbvc	r6, [lr, #-1837]!	; 0x72d
   10a38:	69626165 	stmdbvs	r2!, {r0, r2, r5, r6, r8, sp, lr}^
   10a3c:	732f6668 	teqvc	pc, #104, 12	; 0x6800000
   10a40:	7370616e 	cmnvc	r0, #-2147483621	; 0x8000001b
   10a44:	73746f68 	cmnvc	r4, #104, 30	; 0x1a0
   10a48:	6c67652f 	cfstr64vs	mvdx6, [r7], #-188	; 0xffffff44
   10a4c:	2e636269 	cdpcs	2, 6, cr6, cr3, cr9, {3}
   10a50:	7e746967 	cdpvc	9, 7, cr6, cr4, cr7, {3}
   10a54:	616e696c 	cmnvs	lr, ip, ror #18
   10a58:	655f6f72 	ldrbvs	r6, [pc, #-3954]	; 0xfaee
   10a5c:	62696c67 	rsbvs	r6, r9, #26368	; 0x6700
   10a60:	5f322d63 	svcpl	0x00322d63
   10a64:	6c2f3931 	stcvs	9, cr3, [pc], #-196	; 0x109a8
   10a68:	2f636269 	svccs	0x00636269
   10a6c:	00757363 	rsbseq	r7, r5, r3, ror #6
   10a70:	20554e47 	subscs	r4, r5, r7, asr #28
   10a74:	32205341 	eorcc	r5, r0, #67108865	; 0x4000001
   10a78:	2e34322e 	cdpcs	2, 3, cr3, cr4, cr14, {1}
   10a7c:	80010030 	andhi	r0, r1, r0, lsr r0
   10a80:	00000084 	andeq	r0, r0, r4, lsl #1
   10a84:	00140004 	andseq	r0, r4, r4
   10a88:	01040000 	mrseq	r0, (UNDEF: 4)
   10a8c:	0000000e 	andeq	r0, r0, lr
   10a90:	00033e01 	andeq	r3, r3, r1, lsl #28
   10a94:	0000d300 	andeq	sp, r0, r0, lsl #6
   10a98:	00005f00 	andeq	r5, r0, r0, lsl #30
   10a9c:	08010200 	stmdaeq	r1, {r9}
   10aa0:	00000176 	andeq	r0, r0, r6, ror r1
   10aa4:	84070202 	strhi	r0, [r7], #-514	; 0x202
   10aa8:	02000001 	andeq	r0, r0, #1
   10aac:	00c60704 	sbceq	r0, r6, r4, lsl #14
   10ab0:	04020000 	streq	r0, [r2], #-0
   10ab4:	0000c107 	andeq	ip, r0, r7, lsl #2
   10ab8:	06010200 	streq	r0, [r1], -r0, lsl #4
   10abc:	00000178 	andeq	r0, r0, r8, ror r1
   10ac0:	a6050202 	strge	r0, [r5], -r2, lsl #4
   10ac4:	03000001 	movweq	r0, #1
   10ac8:	6e690504 	cdpvs	5, 6, cr0, cr9, cr4, {0}
   10acc:	08020074 	stmdaeq	r2, {r2, r4, r5, r6}
   10ad0:	00000005 	andeq	r0, r0, r5
   10ad4:	07080200 	streq	r0, [r8, -r0, lsl #4]
   10ad8:	000000bc 	strheq	r0, [r0], -ip
   10adc:	05050402 	streq	r0, [r5, #-1026]	; 0x402
   10ae0:	02000000 	andeq	r0, r0, #0
   10ae4:	01b00704 	lslseq	r0, r4, #14
   10ae8:	01020000 	mrseq	r0, (UNDEF: 2)
   10aec:	00017f08 	andeq	r7, r1, r8, lsl #30
   10af0:	01970400 	orrseq	r0, r7, r0, lsl #8
   10af4:	18010000 	stmdane	r1, {}	; <UNPREDICTABLE>
   10af8:	00000082 	andeq	r0, r0, r2, lsl #1
   10afc:	07000305 	streq	r0, [r0, -r5, lsl #6]
   10b00:	47050001 	strmi	r0, [r5, -r1]
   10b04:	00000000 	andeq	r0, r0, r0
   10b08:	000000df 	ldrdeq	r0, [r0], -pc	; <UNPREDICTABLE>
   10b0c:	00520002 	subseq	r0, r2, r2
   10b10:	01040000 	mrseq	r0, (UNDEF: 4)
   10b14:	00000086 	andeq	r0, r0, r6, lsl #1
   10b18:	00000000 	andeq	r0, r0, r0
   10b1c:	702f2e2e 	eorvc	r2, pc, lr, lsr #28
   10b20:	7374726f 	cmnvc	r4, #-268435450	; 0xf0000006
   10b24:	7379732f 	cmnvc	r9, #-1140850688	; 0xbc000000
   10b28:	73706564 	cmnvc	r0, #100, 10	; 0x19000000
   10b2c:	6d72612f 	ldfvse	f6, [r2, #-188]!	; 0xffffff44
   10b30:	7472632f 	ldrbtvc	r6, [r2], #-815	; 0x32f
   10b34:	00532e69 	subseq	r2, r3, r9, ror #28
   10b38:	6d6f682f 	stclvs	8, cr6, [pc, #-188]!	; 0x10a84
   10b3c:	63742f65 	cmnvs	r4, #404	; 0x194
   10b40:	622d6777 	eorvs	r6, sp, #31195136	; 0x1dc0000
   10b44:	646c6975 	strbtvs	r6, [ip], #-2421	; 0x975
   10b48:	76616c73 			; <UNDEFINED> instruction: 0x76616c73
   10b4c:	6f772f65 	svcvs	0x00772f65
   10b50:	70736b72 	rsbsvc	r6, r3, r2, ror fp
   10b54:	2f656361 	svccs	0x00656361
   10b58:	67776374 			; <UNDEFINED> instruction: 0x67776374
   10b5c:	6b616d2d 	blvs	0x186c018
   10b60:	65722d65 	ldrbvs	r2, [r2, #-3429]!	; 0xd65
   10b64:	7361656c 	cmnvc	r1, #108, 10	; 0x1b000000
   10b68:	616c2f65 	cmnvs	ip, r5, ror #30
   10b6c:	2f6c6562 	svccs	0x006c6562
   10b70:	6b636f64 	blvs	0x18ec908
   10b74:	742d7265 	strtvc	r7, [sp], #-613	; 0x265
   10b78:	74737572 	ldrbtvc	r7, [r3], #-1394	; 0x572
   10b7c:	6d612d79 	stclvs	13, cr2, [r1, #-484]!	; 0xfffffe1c
   10b80:	2d343664 	ldccs	6, cr3, [r4, #-400]!	; 0xfffffe70
   10b84:	67776374 			; <UNDEFINED> instruction: 0x67776374
   10b88:	6975622d 	ldmdbvs	r5!, {r0, r2, r3, r5, r9, sp, lr}^
   10b8c:	742f646c 	strtvc	r6, [pc], #-1132	; 0x10b94
   10b90:	65677261 	strbvs	r7, [r7, #-609]!	; 0x261
   10b94:	72612f74 	rsbvc	r2, r1, #116, 30	; 0x1d0
   10b98:	696c2d6d 	stmdbvs	ip!, {r0, r2, r3, r5, r6, r8, sl, fp, sp}^
   10b9c:	2d78756e 	cfldr64cs	mvdx7, [r8, #-440]!	; 0xfffffe48
   10ba0:	65756e67 	ldrbvs	r6, [r5, #-3687]!	; 0xe67
   10ba4:	68696261 	stmdavs	r9!, {r0, r5, r6, r9, sp, lr}^
   10ba8:	6e732f66 	cdpvs	15, 7, cr2, cr3, cr6, {3}
   10bac:	68737061 	ldmdavs	r3!, {r0, r5, r6, ip, sp, lr}^
   10bb0:	2f73746f 	svccs	0x0073746f
   10bb4:	696c6765 	stmdbvs	ip!, {r0, r2, r5, r6, r8, r9, sl, sp, lr}^
   10bb8:	672e6362 	strvs	r6, [lr, -r2, ror #6]!
   10bbc:	6c7e7469 	cfldrdvs	mvd7, [lr], #-420	; 0xfffffe5c
   10bc0:	72616e69 	rsbvc	r6, r1, #1680	; 0x690
   10bc4:	67655f6f 	strbvs	r5, [r5, -pc, ror #30]!
   10bc8:	6362696c 	cmnvs	r2, #108, 18	; 0x1b0000
   10bcc:	315f322d 	cmpcc	pc, sp, lsr #4
   10bd0:	696c2f39 	stmdbvs	ip!, {r0, r3, r4, r5, r8, r9, sl, fp, sp}^
   10bd4:	632f6362 	teqvs	pc, #-2013265919	; 0x88000001
   10bd8:	47007573 	smlsdxmi	r0, r3, r5, r7
   10bdc:	4120554e 	teqmi	r0, lr, asr #10
   10be0:	2e322053 	mrccs	0, 1, r2, cr2, cr3, {2}
   10be4:	302e3432 	eorcc	r3, lr, r2, lsr r4
   10be8:	de800100 	rmfles	f0, f0, f0
   10bec:	04000000 	streq	r0, [r0], #-0
   10bf0:	00006400 	andeq	r6, r0, r0, lsl #8
   10bf4:	b9010400 	stmdblt	r1, {sl}
   10bf8:	01000001 	tsteq	r0, r1
   10bfc:	00000250 	andeq	r0, r0, r0, asr r2
   10c00:	00000223 	andeq	r0, r0, r3, lsr #4
   10c04:	000103d0 	ldrdeq	r0, [r1], -r0	; <UNPREDICTABLE>
   10c08:	00000028 	andeq	r0, r0, r8, lsr #32
   10c0c:	000000f8 	strdeq	r0, [r0], -r8
   10c10:	c6070402 	strgt	r0, [r7], -r2, lsl #8
   10c14:	02000000 	andeq	r0, r0, #0
   10c18:	01760801 	cmneq	r6, r1, lsl #16
   10c1c:	02020000 	andeq	r0, r2, #0
   10c20:	00018407 	andeq	r8, r1, r7, lsl #8
   10c24:	07040200 	streq	r0, [r4, -r0, lsl #4]
   10c28:	000000c1 	andeq	r0, r0, r1, asr #1
   10c2c:	78060102 	stmdavc	r6, {r1, r8}
   10c30:	02000001 	andeq	r0, r0, #1
   10c34:	01a60502 			; <UNDEFINED> instruction: 0x01a60502
   10c38:	04030000 	streq	r0, [r3], #-0
   10c3c:	746e6905 	strbtvc	r6, [lr], #-2309	; 0x905
   10c40:	05080200 	streq	r0, [r8, #-512]	; 0x200
   10c44:	00000000 	andeq	r0, r0, r0
   10c48:	bc070802 	stclt	8, cr0, [r7], {2}
   10c4c:	02000000 	andeq	r0, r0, #0
   10c50:	00050504 	andeq	r0, r5, r4, lsl #10
   10c54:	04020000 	streq	r0, [r2], #-0
   10c58:	0001b007 	andeq	fp, r1, r7
   10c5c:	78040400 	stmdavc	r4, {sl}
   10c60:	02000000 	andeq	r0, r0, #0
   10c64:	017f0801 	cmneq	pc, r1, lsl #16
   10c68:	44050000 	strmi	r0, [r5], #-0
   10c6c:	01000002 	tsteq	r0, r2
   10c70:	00004f04 	andeq	r4, r0, r4, lsl #30
   10c74:	0103d000 	mrseq	sp, (UNDEF: 3)
   10c78:	00002800 	andeq	r2, r0, r0, lsl #16
   10c7c:	db9c0100 	blle	0xfe711084
   10c80:	06000000 	streq	r0, [r0], -r0
   10c84:	00000260 	andeq	r0, r0, r0, ror #4
   10c88:	004f0401 	subeq	r0, pc, r1, lsl #8
   10c8c:	91020000 	mrsls	r0, (UNDEF: 2)
   10c90:	02650664 	rsbeq	r0, r5, #100, 12	; 0x6400000
   10c94:	04010000 	streq	r0, [r1], #-0
   10c98:	000000db 	ldrdeq	r0, [r0], -fp
   10c9c:	07609102 	strbeq	r9, [r0, -r2, lsl #2]!
   10ca0:	06010061 	streq	r0, [r1], -r1, rrx
   10ca4:	0000004f 	andeq	r0, r0, pc, asr #32
   10ca8:	07749102 	ldrbeq	r9, [r4, -r2, lsl #2]!
   10cac:	06010062 	streq	r0, [r1], -r2, rrx
   10cb0:	0000004f 	andeq	r0, r0, pc, asr #32
   10cb4:	08709102 	ldmdaeq	r0!, {r1, r8, ip, pc}^
   10cb8:	00000249 	andeq	r0, r0, r9, asr #4
   10cbc:	004f0601 	subeq	r0, pc, r1, lsl #12
   10cc0:	91020000 	mrsls	r0, (UNDEF: 2)
   10cc4:	0404006c 	streq	r0, [r4], #-108	; 0x6c
   10cc8:	00000072 	andeq	r0, r0, r2, ror r0
   10ccc:	0001bb00 	andeq	fp, r1, r0, lsl #22
   10cd0:	e0000200 	and	r0, r0, r0, lsl #4
   10cd4:	04000000 	streq	r0, [r0], #-0
   10cd8:	00013a01 	andeq	r3, r1, r1, lsl #20
   10cdc:	0103f800 	tsteq	r3, r0, lsl #16
   10ce0:	0106a600 	tsteq	r6, r0, lsl #12
   10ce4:	6f682f00 	svcvs	0x00682f00
   10ce8:	742f656d 	strtvc	r6, [pc], #-1389	; 0x10cf0
   10cec:	2d677763 	stclcs	7, cr7, [r7, #-396]!	; 0xfffffe74
   10cf0:	6c697562 	cfstr64vs	mvdx7, [r9], #-392	; 0xfffffe78
   10cf4:	616c7364 	cmnvs	ip, r4, ror #6
   10cf8:	772f6576 			; <UNDEFINED> instruction: 0x772f6576
   10cfc:	736b726f 	cmnvc	fp, #-268435450	; 0xf0000006
   10d00:	65636170 	strbvs	r6, [r3, #-368]!	; 0x170
   10d04:	7763742f 	strbvc	r7, [r3, -pc, lsr #8]!
   10d08:	616d2d67 	cmnvs	sp, r7, ror #26
   10d0c:	722d656b 	eorvc	r6, sp, #448790528	; 0x1ac00000
   10d10:	61656c65 	cmnvs	r5, r5, ror #24
   10d14:	6c2f6573 	cfstr32vs	mvfx6, [pc], #-460	; 0x10b50
   10d18:	6c656261 	sfmvs	f6, 2, [r5], #-388	; 0xfffffe7c
   10d1c:	636f642f 	cmnvs	pc, #788529152	; 0x2f000000
   10d20:	2d72656b 	cfldr64cs	mvdx6, [r2, #-428]!	; 0xfffffe54
   10d24:	73757274 	cmnvc	r5, #116, 4	; 0x40000007
   10d28:	612d7974 	teqvs	sp, r4, ror r9
   10d2c:	3436646d 	ldrtcc	r6, [r6], #-1133	; 0x46d
   10d30:	7763742d 	strbvc	r7, [r3, -sp, lsr #8]!
   10d34:	75622d67 	strbvc	r2, [r2, #-3431]!	; 0xd67
   10d38:	2f646c69 	svccs	0x00646c69
   10d3c:	67726174 			; <UNDEFINED> instruction: 0x67726174
   10d40:	612f7465 	teqvs	pc, r5, ror #8
   10d44:	6c2d6d72 	stcvs	13, cr6, [sp], #-456	; 0xfffffe38
   10d48:	78756e69 	ldmdavc	r5!, {r0, r3, r5, r6, r9, sl, fp, sp, lr}^
   10d4c:	756e672d 	strbvc	r6, [lr, #-1837]!	; 0x72d
   10d50:	69626165 	stmdbvs	r2!, {r0, r2, r5, r6, r8, sp, lr}^
   10d54:	732f6668 	teqvc	pc, #104, 12	; 0x6800000
   10d58:	7370616e 	cmnvc	r0, #-2147483621	; 0x8000001b
   10d5c:	73746f68 	cmnvc	r4, #104, 30	; 0x1a0
   10d60:	6363672f 	cmnvs	r3, #12320768	; 0xbc0000
   10d64:	6e696c2d 	cdpvs	12, 6, cr6, cr9, cr13, {1}
   10d68:	2d6f7261 	sfmcs	f7, 2, [pc, #-388]!	; 0x10bec
   10d6c:	2d392e34 	ldccs	14, cr2, [r9, #-208]!	; 0xffffff30
   10d70:	37313032 			; <UNDEFINED> instruction: 0x37313032
   10d74:	2f31302e 	svccs	0x0031302e
   10d78:	6762696c 	strbvs	r6, [r2, -ip, ror #18]!
   10d7c:	632f6363 	teqvs	pc, #-1946157055	; 0x8c000001
   10d80:	69666e6f 	stmdbvs	r6!, {r0, r1, r2, r3, r5, r6, r9, sl, fp, sp, lr}^
   10d84:	72612f67 	rsbvc	r2, r1, #412	; 0x19c
   10d88:	696c2f6d 	stmdbvs	ip!, {r0, r2, r3, r5, r6, r8, r9, sl, fp, sp}^
   10d8c:	75663162 	strbvc	r3, [r6, #-354]!	; 0x162
   10d90:	2e73636e 	cdpcs	3, 7, cr6, cr3, cr14, {3}
   10d94:	682f0053 	stmdavs	pc!, {r0, r1, r4, r6}	; <UNPREDICTABLE>
   10d98:	2f656d6f 	svccs	0x00656d6f
   10d9c:	67776374 			; <UNDEFINED> instruction: 0x67776374
   10da0:	6975622d 	ldmdbvs	r5!, {r0, r2, r3, r5, r9, sp, lr}^
   10da4:	6c73646c 	cfldrdvs	mvd6, [r3], #-432	; 0xfffffe50
   10da8:	2f657661 	svccs	0x00657661
   10dac:	6b726f77 	blvs	0x1cacb90
   10db0:	63617073 	cmnvs	r1, #115	; 0x73
   10db4:	63742f65 	cmnvs	r4, #404	; 0x194
   10db8:	6d2d6777 	stcvs	7, cr6, [sp, #-476]!	; 0xfffffe24
   10dbc:	2d656b61 	fstmdbxcs	r5!, {d22-d69}	;@ Deprecated
   10dc0:	656c6572 	strbvs	r6, [ip, #-1394]!	; 0x572
   10dc4:	2f657361 	svccs	0x00657361
   10dc8:	6562616c 	strbvs	r6, [r2, #-364]!	; 0x16c
   10dcc:	6f642f6c 	svcvs	0x00642f6c
   10dd0:	72656b63 	rsbvc	r6, r5, #101376	; 0x18c00
   10dd4:	7572742d 	ldrbvc	r7, [r2, #-1069]!	; 0x42d
   10dd8:	2d797473 	cfldrdcs	mvd7, [r9, #-460]!	; 0xfffffe34
   10ddc:	36646d61 	strbtcc	r6, [r4], -r1, ror #26
   10de0:	63742d34 	cmnvs	r4, #52, 26	; 0xd00
   10de4:	622d6777 	eorvs	r6, sp, #31195136	; 0x1dc0000
   10de8:	646c6975 	strbtvs	r6, [ip], #-2421	; 0x975
   10dec:	7261742f 	rsbvc	r7, r1, #788529152	; 0x2f000000
   10df0:	2f746567 	svccs	0x00746567
   10df4:	2d6d7261 	sfmcs	f7, 2, [sp, #-388]!	; 0xfffffe7c
   10df8:	756e696c 	strbvc	r6, [lr, #-2412]!	; 0x96c
   10dfc:	6e672d78 	mcrvs	13, 3, r2, cr7, cr8, {3}
   10e00:	62616575 	rsbvs	r6, r1, #490733568	; 0x1d400000
   10e04:	2f666869 	svccs	0x00666869
   10e08:	6975625f 	ldmdbvs	r5!, {r0, r1, r2, r3, r4, r6, r9, sp, lr}^
   10e0c:	622f646c 	eorvs	r6, pc, #108, 8	; 0x6c000000
   10e10:	646c6975 	strbtvs	r6, [ip], #-2421	; 0x975
   10e14:	38782f73 	ldmdacc	r8!, {r0, r1, r4, r5, r6, r8, r9, sl, fp, sp}^
   10e18:	34365f36 	ldrtcc	r5, [r6], #-3894	; 0xf36
   10e1c:	6b6e752d 	blvs	0x1bae2d8
   10e20:	6e776f6e 	cdpvs	15, 7, cr6, cr7, cr14, {3}
   10e24:	6e696c2d 	cdpvs	12, 6, cr6, cr9, cr13, {1}
   10e28:	672d7875 			; <UNDEFINED> instruction: 0x672d7875
   10e2c:	612f756e 	teqvs	pc, lr, ror #10
   10e30:	6c2d6d72 	stcvs	13, cr6, [sp], #-456	; 0xfffffe38
   10e34:	78756e69 	ldmdavc	r5!, {r0, r3, r5, r6, r9, sl, fp, sp, lr}^
   10e38:	756e672d 	strbvc	r6, [lr, #-1837]!	; 0x72d
   10e3c:	69626165 	stmdbvs	r2!, {r0, r2, r5, r6, r8, sp, lr}^
   10e40:	672f6668 	strvs	r6, [pc, -r8, ror #12]!
   10e44:	6c2d6363 	stcvs	3, cr6, [sp], #-396	; 0xfffffe74
   10e48:	72616e69 	rsbvc	r6, r1, #1680	; 0x690
   10e4c:	2e342d6f 	cdpcs	13, 3, cr2, cr4, cr15, {3}
   10e50:	30322d39 	eorscc	r2, r2, r9, lsr sp
   10e54:	302e3731 	eorcc	r3, lr, r1, lsr r7
   10e58:	74732d31 	ldrbtvc	r2, [r3], #-3377	; 0xd31
   10e5c:	32656761 	rsbcc	r6, r5, #25427968	; 0x1840000
   10e60:	6d72612f 	ldfvse	f6, [r2, #-188]!	; 0xffffff44
   10e64:	6e696c2d 	cdpvs	12, 6, cr6, cr9, cr13, {1}
   10e68:	672d7875 			; <UNDEFINED> instruction: 0x672d7875
   10e6c:	6165756e 	cmnvs	r5, lr, ror #10
   10e70:	66686962 	strbtvs	r6, [r8], -r2, ror #18
   10e74:	62696c2f 	rsbvs	r6, r9, #12032	; 0x2f00
   10e78:	00636367 	rsbeq	r6, r3, r7, ror #6
   10e7c:	20554e47 	subscs	r4, r5, r7, asr #28
   10e80:	32205341 	eorcc	r5, r0, #67108865	; 0x4000001
   10e84:	2e34322e 	cdpcs	2, 3, cr3, cr4, cr14, {1}
   10e88:	80010030 	andhi	r0, r1, r0, lsr r0
   10e8c:	000001bb 			; <UNDEFINED> instruction: 0x000001bb
   10e90:	00f40002 	rscseq	r0, r4, r2
   10e94:	01040000 	mrseq	r0, (UNDEF: 4)
   10e98:	0000024f 	andeq	r0, r0, pc, asr #4
   10e9c:	000106a8 	andeq	r0, r1, r8, lsr #13
   10ea0:	000106b4 			; <UNDEFINED> instruction: 0x000106b4
   10ea4:	6d6f682f 	stclvs	8, cr6, [pc, #-188]!	; 0x10df0
   10ea8:	63742f65 	cmnvs	r4, #404	; 0x194
   10eac:	622d6777 	eorvs	r6, sp, #31195136	; 0x1dc0000
   10eb0:	646c6975 	strbtvs	r6, [ip], #-2421	; 0x975
   10eb4:	76616c73 			; <UNDEFINED> instruction: 0x76616c73
   10eb8:	6f772f65 	svcvs	0x00772f65
   10ebc:	70736b72 	rsbsvc	r6, r3, r2, ror fp
   10ec0:	2f656361 	svccs	0x00656361
   10ec4:	67776374 			; <UNDEFINED> instruction: 0x67776374
   10ec8:	6b616d2d 	blvs	0x186c384
   10ecc:	65722d65 	ldrbvs	r2, [r2, #-3429]!	; 0xd65
   10ed0:	7361656c 	cmnvc	r1, #108, 10	; 0x1b000000
   10ed4:	616c2f65 	cmnvs	ip, r5, ror #30
   10ed8:	2f6c6562 	svccs	0x006c6562
   10edc:	6b636f64 	blvs	0x18ecc74
   10ee0:	742d7265 	strtvc	r7, [sp], #-613	; 0x265
   10ee4:	74737572 	ldrbtvc	r7, [r3], #-1394	; 0x572
   10ee8:	6d612d79 	stclvs	13, cr2, [r1, #-484]!	; 0xfffffe1c
   10eec:	2d343664 	ldccs	6, cr3, [r4, #-400]!	; 0xfffffe70
   10ef0:	67776374 			; <UNDEFINED> instruction: 0x67776374
   10ef4:	6975622d 	ldmdbvs	r5!, {r0, r2, r3, r5, r9, sp, lr}^
   10ef8:	742f646c 	strtvc	r6, [pc], #-1132	; 0x10f00
   10efc:	65677261 	strbvs	r7, [r7, #-609]!	; 0x261
   10f00:	72612f74 	rsbvc	r2, r1, #116, 30	; 0x1d0
   10f04:	696c2d6d 	stmdbvs	ip!, {r0, r2, r3, r5, r6, r8, sl, fp, sp}^
   10f08:	2d78756e 	cfldr64cs	mvdx7, [r8, #-440]!	; 0xfffffe48
   10f0c:	65756e67 	ldrbvs	r6, [r5, #-3687]!	; 0xe67
   10f10:	68696261 	stmdavs	r9!, {r0, r5, r6, r9, sp, lr}^
   10f14:	6e732f66 	cdpvs	15, 7, cr2, cr3, cr6, {3}
   10f18:	68737061 	ldmdavs	r3!, {r0, r5, r6, ip, sp, lr}^
   10f1c:	2f73746f 	svccs	0x0073746f
   10f20:	2d636367 	stclcs	3, cr6, [r3, #-412]!	; 0xfffffe64
   10f24:	616e696c 	cmnvs	lr, ip, ror #18
   10f28:	342d6f72 	strtcc	r6, [sp], #-3954	; 0xf72
   10f2c:	322d392e 	eorcc	r3, sp, #753664	; 0xb8000
   10f30:	2e373130 	mrccs	1, 1, r3, cr7, cr0, {1}
   10f34:	6c2f3130 	stfvss	f3, [pc], #-192	; 0x10e7c
   10f38:	63676269 	cmnvs	r7, #-1879048186	; 0x90000006
   10f3c:	6f632f63 	svcvs	0x00632f63
   10f40:	6769666e 	strbvs	r6, [r9, -lr, ror #12]!
   10f44:	6d72612f 	ldfvse	f6, [r2, #-188]!	; 0xffffff44
   10f48:	62696c2f 	rsbvs	r6, r9, #12032	; 0x2f00
   10f4c:	6e756631 	mrcvs	6, 3, r6, cr5, cr1, {1}
   10f50:	532e7363 	teqpl	lr, #-1946157055	; 0x8c000001
   10f54:	6f682f00 	svcvs	0x00682f00
   10f58:	742f656d 	strtvc	r6, [pc], #-1389	; 0x10f60
   10f5c:	2d677763 	stclcs	7, cr7, [r7, #-396]!	; 0xfffffe74
   10f60:	6c697562 	cfstr64vs	mvdx7, [r9], #-392	; 0xfffffe78
   10f64:	616c7364 	cmnvs	ip, r4, ror #6
   10f68:	772f6576 			; <UNDEFINED> instruction: 0x772f6576
   10f6c:	736b726f 	cmnvc	fp, #-268435450	; 0xf0000006
   10f70:	65636170 	strbvs	r6, [r3, #-368]!	; 0x170
   10f74:	7763742f 	strbvc	r7, [r3, -pc, lsr #8]!
   10f78:	616d2d67 	cmnvs	sp, r7, ror #26
   10f7c:	722d656b 	eorvc	r6, sp, #448790528	; 0x1ac00000
   10f80:	61656c65 	cmnvs	r5, r5, ror #24
   10f84:	6c2f6573 	cfstr32vs	mvfx6, [pc], #-460	; 0x10dc0
   10f88:	6c656261 	sfmvs	f6, 2, [r5], #-388	; 0xfffffe7c
   10f8c:	636f642f 	cmnvs	pc, #788529152	; 0x2f000000
   10f90:	2d72656b 	cfldr64cs	mvdx6, [r2, #-428]!	; 0xfffffe54
   10f94:	73757274 	cmnvc	r5, #116, 4	; 0x40000007
   10f98:	612d7974 	teqvs	sp, r4, ror r9
   10f9c:	3436646d 	ldrtcc	r6, [r6], #-1133	; 0x46d
   10fa0:	7763742d 	strbvc	r7, [r3, -sp, lsr #8]!
   10fa4:	75622d67 	strbvc	r2, [r2, #-3431]!	; 0xd67
   10fa8:	2f646c69 	svccs	0x00646c69
   10fac:	67726174 			; <UNDEFINED> instruction: 0x67726174
   10fb0:	612f7465 	teqvs	pc, r5, ror #8
   10fb4:	6c2d6d72 	stcvs	13, cr6, [sp], #-456	; 0xfffffe38
   10fb8:	78756e69 	ldmdavc	r5!, {r0, r3, r5, r6, r9, sl, fp, sp, lr}^
   10fbc:	756e672d 	strbvc	r6, [lr, #-1837]!	; 0x72d
   10fc0:	69626165 	stmdbvs	r2!, {r0, r2, r5, r6, r8, sp, lr}^
   10fc4:	5f2f6668 	svcpl	0x002f6668
   10fc8:	6c697562 	cfstr64vs	mvdx7, [r9], #-392	; 0xfffffe78
   10fcc:	75622f64 	strbvc	r2, [r2, #-3940]!	; 0xf64
   10fd0:	73646c69 	cmnvc	r4, #26880	; 0x6900
   10fd4:	3638782f 	ldrtcc	r7, [r8], -pc, lsr #16
   10fd8:	2d34365f 	ldccs	6, cr3, [r4, #-380]!	; 0xfffffe84
   10fdc:	6e6b6e75 	mcrvs	14, 3, r6, cr11, cr5, {3}
   10fe0:	2d6e776f 	stclcs	7, cr7, [lr, #-444]!	; 0xfffffe44
   10fe4:	756e696c 	strbvc	r6, [lr, #-2412]!	; 0x96c
   10fe8:	6e672d78 	mcrvs	13, 3, r2, cr7, cr8, {3}
   10fec:	72612f75 	rsbvc	r2, r1, #468	; 0x1d4
   10ff0:	696c2d6d 	stmdbvs	ip!, {r0, r2, r3, r5, r6, r8, sl, fp, sp}^
   10ff4:	2d78756e 	cfldr64cs	mvdx7, [r8, #-440]!	; 0xfffffe48
   10ff8:	65756e67 	ldrbvs	r6, [r5, #-3687]!	; 0xe67
   10ffc:	68696261 	stmdavs	r9!, {r0, r5, r6, r9, sp, lr}^

Disassembly of section load3a:

76e05000 <load3a>:
76e05000:	464c457f 			; <UNDEFINED> instruction: 0x464c457f
76e05004:	00010101 	andeq	r0, r1, r1, lsl #2
	...
76e05010:	00280003 	eoreq	r0, r8, r3
76e05014:	00000001 	andeq	r0, r0, r1
76e05018:	00016eac 	andeq	r6, r1, ip, lsr #29
76e0501c:	00000034 	andeq	r0, r0, r4, lsr r0
76e05020:	00126ba0 	andseq	r6, r2, r0, lsr #23
76e05024:	05000400 	streq	r0, [r0, #-1024]	; 0x400
76e05028:	00200034 	eoreq	r0, r0, r4, lsr r0
76e0502c:	0028000a 	eoreq	r0, r8, sl
76e05030:	00450046 	subeq	r0, r5, r6, asr #32
76e05034:	70000001 	andvc	r0, r0, r1
76e05038:	0011e8b8 			; <UNDEFINED> instruction: 0x0011e8b8
76e0503c:	0011e8b8 			; <UNDEFINED> instruction: 0x0011e8b8
76e05040:	0011e8b8 			; <UNDEFINED> instruction: 0x0011e8b8
76e05044:	00001460 	andeq	r1, r0, r0, ror #8
76e05048:	00001460 	andeq	r1, r0, r0, ror #8
76e0504c:	00000004 	andeq	r0, r0, r4
76e05050:	00000004 	andeq	r0, r0, r4
76e05054:	00000006 	andeq	r0, r0, r6
76e05058:	00000034 	andeq	r0, r0, r4, lsr r0
76e0505c:	00000034 	andeq	r0, r0, r4, lsr r0
76e05060:	00000034 	andeq	r0, r0, r4, lsr r0
76e05064:	00000140 	andeq	r0, r0, r0, asr #2
76e05068:	00000140 	andeq	r0, r0, r0, asr #2
76e0506c:	00000005 	andeq	r0, r0, r5
76e05070:	00000004 	andeq	r0, r0, r4
76e05074:	00000003 	andeq	r0, r0, r3
76e05078:	0011dce8 	andseq	sp, r1, r8, ror #25
76e0507c:	0011dce8 	andseq	sp, r1, r8, ror #25
76e05080:	0011dce8 	andseq	sp, r1, r8, ror #25
76e05084:	00000019 	andeq	r0, r0, r9, lsl r0
76e05088:	00000019 	andeq	r0, r0, r9, lsl r0
76e0508c:	00000004 	andeq	r0, r0, r4
76e05090:	00000004 	andeq	r0, r0, r4
76e05094:	00000001 	andeq	r0, r0, r1
	...
76e050a4:	00122fe4 	andseq	r2, r2, r4, ror #31
76e050a8:	00122fe4 	andseq	r2, r2, r4, ror #31
76e050ac:	00000005 	andeq	r0, r0, r5
76e050b0:	00010000 	andeq	r0, r1, r0
76e050b4:	00000001 	andeq	r0, r0, r1
76e050b8:	00123710 	andseq	r3, r2, r0, lsl r7
76e050bc:	00133710 	andseq	r3, r3, r0, lsl r7
76e050c0:	00133710 	andseq	r3, r3, r0, lsl r7
76e050c4:	000026f4 	strdeq	r2, [r0], -r4
76e050c8:	00004e60 	andeq	r4, r0, r0, ror #28
76e050cc:	00000006 	andeq	r0, r0, r6
76e050d0:	00010000 	andeq	r0, r1, r0
76e050d4:	00000002 	andeq	r0, r0, r2
76e050d8:	00124f20 	andseq	r4, r2, r0, lsr #30
76e050dc:	00134f20 	andseq	r4, r3, r0, lsr #30
76e050e0:	00134f20 	andseq	r4, r3, r0, lsr #30
76e050e4:	000000e0 	andeq	r0, r0, r0, ror #1
76e050e8:	000000e0 	andeq	r0, r0, r0, ror #1
76e050ec:	00000006 	andeq	r0, r0, r6
76e050f0:	00000004 	andeq	r0, r0, r4
76e050f4:	00000004 	andeq	r0, r0, r4
76e050f8:	00000174 	andeq	r0, r0, r4, ror r1
76e050fc:	00000174 	andeq	r0, r0, r4, ror r1
76e05100:	00000174 	andeq	r0, r0, r4, ror r1
76e05104:	00000020 	andeq	r0, r0, r0, lsr #32
76e05108:	00000020 	andeq	r0, r0, r0, lsr #32
76e0510c:	00000004 	andeq	r0, r0, r4
76e05110:	00000004 	andeq	r0, r0, r4
76e05114:	00000007 	andeq	r0, r0, r7
76e05118:	00123710 	andseq	r3, r2, r0, lsl r7
76e0511c:	00133710 	andseq	r3, r3, r0, lsl r7
76e05120:	00133710 	andseq	r3, r3, r0, lsl r7
76e05124:	00000008 	andeq	r0, r0, r8
76e05128:	00000048 	andeq	r0, r0, r8, asr #32
76e0512c:	00000004 	andeq	r0, r0, r4
76e05130:	00000004 	andeq	r0, r0, r4
76e05134:	6474e551 	ldrbtvs	lr, [r4], #-1361	; 0x551
	...
76e0514c:	00000006 	andeq	r0, r0, r6
76e05150:	00000010 	andeq	r0, r0, r0, lsl r0
76e05154:	6474e552 	ldrbtvs	lr, [r4], #-1362	; 0x552
76e05158:	00123710 	andseq	r3, r2, r0, lsl r7
76e0515c:	00133710 	andseq	r3, r3, r0, lsl r7
76e05160:	00133710 	andseq	r3, r3, r0, lsl r7
76e05164:	000018f0 	strdeq	r1, [r0], -r0
76e05168:	000018f0 	strdeq	r1, [r0], -r0
76e0516c:	00000004 	andeq	r0, r0, r4
76e05170:	00000001 	andeq	r0, r0, r1
76e05174:	00000004 	andeq	r0, r0, r4
76e05178:	00000010 	andeq	r0, r0, r0, lsl r0
76e0517c:	00000001 	andeq	r0, r0, r1
76e05180:	00554e47 	subseq	r4, r5, r7, asr #28
76e05184:	00000000 	andeq	r0, r0, r0
76e05188:	00000002 	andeq	r0, r0, r2
76e0518c:	00000006 	andeq	r0, r0, r6
76e05190:	00000020 	andeq	r0, r0, r0, lsr #32
76e05194:	000003f3 	strdeq	r0, [r0], -r3
76e05198:	0000000b 	andeq	r0, r0, fp
76e0519c:	00000200 	andeq	r0, r0, r0, lsl #4
76e051a0:	0000000e 	andeq	r0, r0, lr
76e051a4:	441030a4 	ldrmi	r3, [r0], #-164	; 0xa4
76e051a8:	010a2184 	smlabbeq	sl, r4, r1, r2
76e051ac:	90e6038c 	rscls	r0, r6, ip, lsl #7
76e051b0:	00884541 	addeq	r4, r8, r1, asr #10
76e051b4:	00080084 	andeq	r0, r8, r4, lsl #1
76e051b8:	60008445 	andvs	r8, r0, r5, asr #8
76e051bc:	0c0080c0 	stceq	0, cr8, [r0], {192}	; 0xc0
76e051c0:	01000c8a 	smlabbeq	r0, sl, ip, r0
76e051c4:	40080030 	andmi	r0, r8, r0, lsr r0
76e051c8:	00aa0832 	adceq	r0, sl, r2, lsr r8
76e051cc:	6c364888 	ldcvs	8, cr4, [r6], #-544	; 0xfffffde0
76e051d0:	003816a0 	eorseq	r1, r8, r0, lsr #13
76e051d4:	8e808426 	cdphi	4, 8, cr8, cr0, cr6, {1}
76e051d8:	04400804 	strbeq	r0, [r0], #-2052	; 0x804
76e051dc:	a4a60c02 	strtge	r0, [r6], #3074	; 0xc02
76e051e0:	c863061a 	stmdagt	r3!, {r1, r3, r4, r9, sl}^
76e051e4:	0120c000 	teqeq	r0, r0
76e051e8:	005200c0 	subseq	r0, r2, r0, asr #1
76e051ec:	04088121 	streq	r8, [r8], #-289	; 0x121
76e051f0:	a820200a 	stmdage	r0!, {r1, r3, sp}
76e051f4:	28140014 	ldmdacs	r4, {r2, r4}
76e051f8:	5000006a 	andpl	r0, r0, sl, rrx
76e051fc:	4244caa0 	submi	ip, r4, #160, 20	; 0xa0000
76e05200:	82020008 	andhi	r0, r2, #8
76e05204:	00420000 	subeq	r0, r2, r0
76e05208:	00805830 	addeq	r5, r0, r0, lsr r8
76e0520c:	500250c9 	andpl	r5, r2, r9, asr #1
76e05210:	01104002 	tsteq	r0, r2
76e05214:	00000000 	andeq	r0, r0, r0
76e05218:	18110000 	ldmdane	r1, {}	; <UNPREDICTABLE>
76e0521c:	88408044 	stmdahi	r0, {r2, r6, pc}^
76e05220:	c0210890 	mlagt	r1, r0, r8, r0
76e05224:	a0cb8142 	sbcge	r8, fp, r2, asr #2
76e05228:	8218e4d9 	andshi	lr, r8, #-654311424	; 0xd9000000
76e0522c:	00141408 	andseq	r1, r4, r8, lsl #8
76e05230:	42000007 	andmi	r0, r0, #7
76e05234:	00204090 	mlaeq	r0, r0, r0, r4
76e05238:	02121a20 	andseq	r1, r2, #32, 20	; 0x20000
76e0523c:	2e440411 	mcrcs	4, 2, r0, cr4, cr1, {0}
76e05240:	a2a20108 	adcge	r0, r2, #8, 2
76e05244:	943b1418 	ldrtls	r1, [fp], #-1048	; 0x418
76e05248:	88005000 	stmdahi	r0, {ip, lr}
76e0524c:	0300c500 	movweq	ip, #1280	; 0x500
76e05250:	280e1142 	stmdacs	lr, {r1, r6, r8, ip}
76e05254:	00108261 	andseq	r8, r0, r1, ror #4
76e05258:	00000120 	andeq	r0, r0, r0, lsr #2
76e0525c:	80048c44 	andhi	r8, r4, r4, asr #24
76e05260:	0c010001 	stceq	0, cr0, [r1], {1}
76e05264:	648a0006 	strvs	r0, [sl], #6
76e05268:	4800800a 	stmdami	r0, {r1, r3, pc}
76e0526c:	08ac6d00 	stmiaeq	ip!, {r8, sl, fp, sp, lr}
76e05270:	34000881 	strcc	r0, [r0], #-2177	; 0x881
76e05274:	60000810 	andvs	r0, r0, r0, lsl r8
76e05278:	46304104 	ldrtmi	r4, [r0], -r4, lsl #2
76e0527c:	64c000b0 	strbvs	r0, [r0], #176	; 0xb0
76e05280:	82509303 	subshi	r9, r0, #201326592	; 0xc000000
76e05284:	02802010 	addeq	r2, r0, #16
76e05288:	02200480 	eoreq	r0, r0, #128, 8	; 0x80000000
76e0528c:	10020822 	andne	r0, r2, r2, lsr #16
76e05290:	450e2240 	strmi	r2, [lr, #-576]	; 0x240
76e05294:	7108612d 	tstvc	r8, sp, lsr #2
76e05298:	08012040 	stmdaeq	r1, {r6, sp}
76e0529c:	1030c008 	eorsne	ip, r0, r8
76e052a0:	484d2013 	stmdami	sp, {r0, r1, r4, sp}^
76e052a4:	02400120 	subeq	r0, r0, #32, 2
76e052a8:	0f200600 	svceq	0x00200600
76e052ac:	36804344 	strcc	r4, [r0], r4, asr #6
76e052b0:	41210002 	teqmi	r1, r2
76e052b4:	8000f300 	andhi	pc, r0, r0, lsl #6
76e052b8:	20100b03 	andscs	r0, r0, r3, lsl #22
76e052bc:	44a120c4 	strtmi	r2, [r1], #196	; 0xc4
76e052c0:	8c407080 	mcrrhi	0, 8, r7, r0, cr0
76e052c4:	018240c1 	orreq	r4, r2, r1, asr #1
76e052c8:	00280420 	eoreq	r0, r8, r0, lsr #8
76e052cc:	00000000 	andeq	r0, r0, r0
76e052d0:	08080362 	stmdaeq	r8, {r1, r5, r6, r8, r9}
76e052d4:	31021692 			; <UNDEFINED> instruction: 0x31021692
76e052d8:	89000800 	stmdbhi	r0, {fp}
76e052dc:	70404824 	subvc	r4, r0, r4, lsr #16
76e052e0:	023a3414 	eorseq	r3, sl, #20, 8	; 0x14000000
76e052e4:	01010000 	mrseq	r0, (UNDEF: 1)
76e052e8:	4010202a 	andsmi	r2, r0, sl, lsr #32
76e052ec:	22e82264 	rsccs	r2, r8, #100, 4	; 0x40000006
76e052f0:	00104020 	andseq	r4, r0, r0, lsr #32
76e052f4:	80224414 	eorhi	r4, r2, r4, lsl r4
76e052f8:	0a6b4202 	beq	0x788d5b08
76e052fc:	1bacda06 	blne	0x7593bb1c
76e05300:	00006440 	andeq	r6, r0, r0, asr #8
76e05304:	02042001 	andeq	r2, r4, #1
76e05308:	00000000 	andeq	r0, r0, r0
76e0530c:	0483443c 	streq	r4, [r3], #1084	; 0x43c
76e05310:	f9205854 			; <UNDEFINED> instruction: 0xf9205854
76e05314:	00688082 	rsbeq	r8, r8, r2, lsl #1
76e05318:	20000004 	andcs	r0, r0, r4
76e0531c:	a98c1065 	stmibge	ip, {r0, r2, r5, r6, ip}
76e05320:	116880b8 	strhne	r8, [r8, #-8]!
76e05324:	24952104 	ldrcs	r2, [r5], #260	; 0x104
76e05328:	08008810 	stmdaeq	r0, {r4, fp, pc}
76e0532c:	127c0c04 	rsbsne	r0, ip, #4, 24	; 0x400
76e05330:	10c20d18 	sbcne	r0, r2, r8, lsl sp
76e05334:	04000105 	streq	r0, [r0], #-261	; 0x105
76e05338:	89040140 	stmdbhi	r4, {r6, r8}
76e0533c:	6d480500 	cfstr64vs	mvdx0, [r8, #-0]
76e05340:	00bc04f0 	ldrshteq	r0, [ip], r0
76e05344:	04000080 	streq	r0, [r0], #-128	; 0x80
76e05348:	15900020 	ldrne	r0, [r0, #32]
76e0534c:	ec282006 	stc	0, cr2, [r8], #-24	; 0xffffffe8
76e05350:	01114201 	tsteq	r1, r1, lsl #4
76e05354:	80322000 	eorshi	r2, r2, r0
76e05358:	22740e08 	rsbscs	r0, r4, #8, 28	; 0x80
76e0535c:	06089021 	streq	r9, [r8], -r1, lsr #32
76e05360:	09c14000 	stmibeq	r1, {lr}^
76e05364:	12810810 	addne	r0, r1, #16, 16	; 0x100000
76e05368:	24fad393 	ldrbtcs	sp, [sl], #915	; 0x393
76e0536c:	48608000 	stmdami	r0!, {pc}^
76e05370:	430e86e0 	movwmi	r8, #59104	; 0xe6e0
76e05374:	004e31cc 	subeq	r3, lr, ip, asr #3
76e05378:	00000000 	andeq	r0, r0, r0
76e0537c:	5c2001a5 	stfpls	f0, [r0], #-660	; 0xfffffd6c
76e05380:	e2d67015 	sbcs	r7, r6, #21
76e05384:	0d90280b 	ldceq	8, cr2, [r0, #44]	; 0x2c
76e05388:	20702493 			; <UNDEFINED> instruction: 0x20702493
76e0538c:	0c410902 	mcrreq	9, 0, r0, r1, cr2
76e05390:	04005280 	streq	r5, [r0], #-640	; 0x280
76e05394:	e000c264 	and	ip, r0, r4, ror #4
76e05398:	80801030 	addhi	r1, r0, r0, lsr r0
76e0539c:	d00f0114 	andle	r0, pc, r4, lsl r1	; <UNPREDICTABLE>
76e053a0:	0805800c 	stmdaeq	r5, {r2, r3, pc}
76e053a4:	22620820 	rsbcs	r0, r2, #32, 16	; 0x200000
76e053a8:	000224c2 	andeq	r2, r2, r2, asr #9
76e053ac:	0a000000 	beq	0x76e053b4
76e053b0:	88210068 	stmdahi	r1!, {r3, r5, r6}
76e053b4:	a2914801 	addsge	r4, r1, #65536	; 0x10000
76e053b8:	520ce010 	andpl	lr, ip, #16
76e053bc:	04a50534 	strteq	r0, [r5], #1332	; 0x534
76e053c0:	00841040 	addeq	r1, r4, r0, asr #32
76e053c4:	02404858 	subeq	r4, r0, #88, 16	; 0x580000
76e053c8:	c1461024 	cmpgt	r6, r4, lsr #32
76e053cc:	00885424 	addeq	r5, r8, r4, lsr #8
76e053d0:	000d2048 	andeq	r2, sp, r8, asr #32
76e053d4:	84140104 	ldrhi	r0, [r4], #-260	; 0x104
76e053d8:	02081004 	andeq	r1, r8, #4
76e053dc:	1854c008 	ldmdane	r4, {r3, lr, pc}^
76e053e0:	14457080 	strbne	r7, [r5], #-128	; 0x80
76e053e4:	00000804 	andeq	r0, r0, r4, lsl #16
76e053e8:	032cc114 	teqeq	ip, #20, 2
76e053ec:	10020000 	andne	r0, r2, r0
76e053f0:	c31d5e04 	tstgt	sp, #4, 28	; 0x40
76e053f4:	020a0029 	andeq	r0, sl, #41	; 0x29
76e053f8:	22010153 	andcs	r0, r1, #-1073741804	; 0xc0000014
76e053fc:	c0a02124 	adcgt	r2, r0, r4, lsr #2
76e05400:	98325100 	ldmdals	r2!, {r8, ip, lr}
76e05404:	01201811 	teqeq	r0, r1, lsl r8
76e05408:	00600002 	rsbeq	r0, r0, r2
76e0540c:	0d81b508 	cfstr32eq	mvfx11, [r1, #32]
76e05410:	00498000 	subeq	r8, r9, r0
76e05414:	a8111000 	ldmdage	r1, {ip}
76e05418:	8000841e 	andhi	r8, r0, lr, lsl r4
76e0541c:	02104001 	andseq	r4, r0, #1
76e05420:	e0080229 	and	r0, r8, r9, lsr #4
76e05424:	00041000 	andeq	r1, r4, r0
76e05428:	c2004000 	andgt	r4, r0, #0
76e0542c:	ba182a00 	blt	0x7740fc34
76e05430:	c0840500 	addgt	r0, r4, r0, lsl #10
76e05434:	4548b39a 	strbmi	fp, [r8, #-922]	; 0x39a
76e05438:	88be4108 	ldmhi	lr!, {r3, r8, lr}
76e0543c:	11474000 	mrsne	r4, (UNDEF: 71)
76e05440:	813330c0 	teqhi	r3, r0, asr #1
76e05444:	a201640c 	andge	r6, r1, #12, 8	; 0xc000000
76e05448:	0cd76c10 	ldcleq	12, cr6, [r7], {16}
76e0544c:	128a0884 	addne	r0, sl, #132, 16	; 0x840000
76e05450:	8c2a05a8 	cfstr32hi	mvfx0, [sl], #-672	; 0xfffffd60
76e05454:	20980090 	umullscs	r0, r8, r0, r0
76e05458:	080a4b8a 	stmdaeq	sl, {r1, r3, r7, r8, r9, fp, lr}
76e0545c:	00193920 	andseq	r3, r9, r0, lsr #18
76e05460:	22010494 	andcs	r0, r1, #148, 8	; 0x94000000
76e05464:	82044094 	andhi	r4, r4, #148	; 0x94
76e05468:	12401010 	subne	r1, r0, #16
76e0546c:	48106800 	ldmdami	r0, {fp, sp, lr}
76e05470:	2c008280 	sfmcs	f0, 1, [r0], {128}	; 0x80
76e05474:	ea4c0000 	b	0x7810547c
76e05478:	00200020 	eoreq	r0, r0, r0, lsr #32
76e0547c:	00004413 	andeq	r4, r0, r3, lsl r4
76e05480:	ef489870 	svc	0x00489870
76e05484:	69001aa1 	stmdbvs	r0, {r0, r5, r7, r9, fp, ip}
76e05488:	02402080 	subeq	r2, r0, #128	; 0x80
76e0548c:	401dbc24 	andsmi	fp, sp, r4, lsr #24
76e05490:	84888c83 	strhi	r8, [r8], #3203	; 0xc83
76e05494:	0c043481 	cfstrseq	mvf3, [r4], {129}	; 0x81
76e05498:	33100400 	tstcc	r0, #0, 8
76e0549c:	22084c00 	andcs	r4, r8, #0, 24
76e054a0:	00121228 	andseq	r1, r2, r8, lsr #4
76e054a4:	00072410 	andeq	r2, r7, r0, lsl r4
76e054a8:	09245000 	stmdbeq	r4!, {ip, lr}
76e054ac:	600a4040 	andvs	r4, sl, r0, asr #32
76e054b0:	50000903 	andpl	r0, r0, r3, lsl #18
76e054b4:	000c0000 	andeq	r0, ip, r0
76e054b8:	c000500d 	andgt	r5, r0, sp
76e054bc:	04055002 	streq	r5, [r5], #-2
76e054c0:	a8010241 	stmdage	r1, {r0, r6, r9}
76e054c4:	40805048 	addmi	r5, r0, r8, asr #32
76e054c8:	0128007f 	teqeq	r8, pc, ror r0
76e054cc:	28342138 	ldmdacs	r4!, {r3, r4, r5, r8, sp}
76e054d0:	e50882e0 	str	r8, [r8, #-736]	; 0x2e0
76e054d4:	01d14001 	bicseq	r4, r1, r1
76e054d8:	20404020 	subcs	r4, r0, r0, lsr #32
76e054dc:	00410002 	subeq	r0, r1, r2
76e054e0:	08965c4c 	ldmeq	r6, {r2, r3, r6, sl, fp, ip, lr}
76e054e4:	270a0286 	strcs	r0, [sl, -r6, lsl #5]
76e054e8:	00200224 	eoreq	r0, r0, r4, lsr #4
76e054ec:	1800d680 	stmdane	r0, {r7, r9, sl, ip, lr, pc}
76e054f0:	40021204 	andmi	r1, r2, r4, lsl #4
76e054f4:	20000010 	andcs	r0, r0, r0, lsl r0
76e054f8:	22884028 	addcs	r4, r8, #40	; 0x28
76e054fc:	21498500 	cmpcs	r9, r0, lsl #10
76e05500:	009814d1 			; <UNDEFINED> instruction: 0x009814d1
76e05504:	81a60426 			; <UNDEFINED> instruction: 0x81a60426
76e05508:	20230084 	eorcs	r0, r3, r4, lsl #1
76e0550c:	d082e600 	addle	lr, r2, r0, lsl #12
76e05510:	330a110a 	movwcc	r1, #41226	; 0xa10a
76e05514:	d0818064 	addle	r8, r1, r4, rrx
76e05518:	056053a0 	strbeq	r5, [r0, #-928]!	; 0x3a0
76e0551c:	24482128 	strbcs	r2, [r8], #-296	; 0x128
76e05520:	13818469 	orrne	r8, r1, #1761607680	; 0x69000000
76e05524:	81105012 	tsthi	r0, r2, lsl r0
76e05528:	00460220 	subeq	r0, r6, r0, lsr #4
76e0552c:	0a018000 	beq	0x76e65534
76e05530:	0980dc68 	stmibeq	r0, {r3, r5, r6, sl, fp, ip, lr, pc}
76e05534:	0d29100a 	stceq	0, cr1, [r9, #-40]!	; 0xffffffd8
76e05538:	90026002 	andls	r6, r2, r2
76e0553c:	883403c0 	ldmdahi	r4!, {r6, r7, r8, r9}
76e05540:	00480000 	subeq	r0, r8, r0
76e05544:	a0420280 	subge	r0, r2, r0, lsl #5
76e05548:	60034100 	andvs	r4, r3, r0, lsl #2
76e0554c:	39a90011 	stmibcc	r9!, {r0, r4}
76e05550:	800804b0 			; <UNDEFINED> instruction: 0x800804b0
76e05554:	80802140 	addhi	r2, r0, r0, asr #2
76e05558:	20948260 	addscs	r8, r4, r0, ror #4
76e0555c:	d09620a4 	addsle	r2, r6, r4, lsr #1
76e05560:	84441830 	strbhi	r1, [r4], #-2096	; 0x830
76e05564:	8180b915 	orrhi	fp, r0, r5, lsl r9
76e05568:	77091c8e 	strvc	r1, [r9, -lr, lsl #25]
76e0556c:	028a1888 	addeq	r1, sl, #136, 16	; 0x880000
76e05570:	188e904d 	stmne	lr, {r0, r2, r3, r6, ip, pc}
76e05574:	00040040 	andeq	r0, r4, r0, asr #32
76e05578:	48981d88 	ldmmi	r8, {r3, r7, r8, sl, fp, ip}
76e0557c:	52905001 	addspl	r5, r0, #1
76e05580:	0014b0b4 	ldrheq	fp, [r4], -r4
76e05584:	5e48ec04 	cdppl	12, 4, cr14, cr8, cr4, {0}
76e05588:	4280000d 	addmi	r0, r0, #13
76e0558c:	04020000 	streq	r0, [r2], #-0
76e05590:	08108040 	ldmdaeq	r0, {r6, pc}
76e05594:	0011c7a9 	andseq	ip, r1, r9, lsr #15
76e05598:	45a13ad1 	strmi	r3, [r1, #2769]!	; 0xad1
76e0559c:	b0456661 	sublt	r6, r5, r1, ror #12
76e055a0:	00801041 	addeq	r1, r0, r1, asr #32
76e055a4:	00000000 	andeq	r0, r0, r0
76e055a8:	05418105 	strbeq	r8, [r1, #-261]	; 0x105
76e055ac:	80400000 	subhi	r0, r0, r0
76e055b0:	168e0028 	strne	r0, [lr], r8, lsr #32
76e055b4:	00400741 	subeq	r0, r0, r1, asr #14
76e055b8:	f0205020 			; <UNDEFINED> instruction: 0xf0205020
76e055bc:	00010100 	andeq	r0, r1, r0, lsl #2
76e055c0:	4a094035 	bmi	0x7705569c
76e055c4:	80a08008 	adchi	r8, r0, r8
76e055c8:	22194100 	andscs	r4, r9, #0, 2
76e055cc:	42810402 	addmi	r0, r1, #33554432	; 0x2000000
76e055d0:	0618040c 	ldreq	r0, [r8], -ip, lsl #8
76e055d4:	60222015 	eorvs	r2, r2, r5, lsl r0
76e055d8:	10000010 	andne	r0, r0, r0, lsl r0
76e055dc:	081498c1 	ldmdaeq	r4, {r0, r6, r7, fp, ip, pc}
76e055e0:	72749040 	rsbsvc	r9, r4, #64	; 0x40
76e055e4:	2118aa9d 			; <UNDEFINED> instruction: 0x2118aa9d
76e055e8:	50100091 	mulspl	r0, r1, r0
76e055ec:	44128a20 	ldrmi	r8, [r2], #-2592	; 0xa20
76e055f0:	40020461 	andmi	r0, r2, r1, ror #8
76e055f4:	588230d2 	stmpl	r2, {r1, r4, r6, r7, ip, sp}
76e055f8:	e1176900 	tst	r7, r0, lsl #18
76e055fc:	10c14000 	sbcne	r4, r1, r0
76e05600:	b18020b2 	strhlt	r2, [r0, r2]
76e05604:	e5a44052 	str	r4, [r4, #82]!	; 0x52
76e05608:	40380440 	eorsmi	r0, r8, r0, asr #8
76e0560c:	834144cd 	movthi	r4, #5325	; 0x14cd
76e05610:	1002a000 	andne	sl, r2, r0
76e05614:	85200040 	strhi	r0, [r0, #-64]!	; 0x40
76e05618:	00842c02 	addeq	r2, r4, r2, lsl #24
76e0561c:	0401c478 	streq	ip, [r1], #-1144	; 0x478
76e05620:	09400020 	stmdbeq	r0, {r5}^
76e05624:	e092d885 	adds	sp, r2, r5, lsl #17
76e05628:	00000000 	andeq	r0, r0, r0
76e0562c:	00000448 	andeq	r0, r0, r8, asr #8
76e05630:	18840100 	stmne	r4, {r8}
76e05634:	48803408 	stmmi	r0, {r3, sl, ip, sp}
76e05638:	a0941204 	addsge	r1, r4, r4, lsl #4
76e0563c:	00000000 	andeq	r0, r0, r0
76e05640:	40cb120a 	sbcmi	r1, fp, sl, lsl #4
76e05644:	d99289a6 	ldmible	r2, {r1, r2, r5, r7, r8, fp, pc}
76e05648:	40000105 	andmi	r0, r0, r5, lsl #2
76e0564c:	005c0111 	subseq	r0, ip, r1, lsl r1
76e05650:	0de13890 	stcleq	8, cr3, [r1, #576]!	; 0x240
76e05654:	04e04a00 	strbteq	r4, [r0], #2560	; 0xa00
76e05658:	00000000 	andeq	r0, r0, r0
76e0565c:	12d34123 	sbcsne	r4, r3, #-1073741816	; 0xc0000008
76e05660:	020200c0 	andeq	r0, r2, #192	; 0xc0
76e05664:	1000045e 	andne	r0, r0, lr, asr r4
76e05668:	0d042a86 	vstreq	s4, [r4, #-536]	; 0xfffffde8
76e0566c:	0218a048 	andseq	sl, r8, #72	; 0x48
76e05670:	10009400 	andne	r9, r0, r0, lsl #8
76e05674:	93880824 	orrls	r0, r8, #36, 16	; 0x240000
76e05678:	00284801 	eoreq	r4, r8, r1, lsl #16
76e0567c:	010860d1 	ldrdeq	r6, [r8, -r1]
76e05680:	00800008 	addeq	r0, r0, r8
76e05684:	000a0402 	andeq	r0, sl, r2, lsl #8
76e05688:	02204025 	eoreq	r4, r0, #37	; 0x25
76e0568c:	00080800 	andeq	r0, r8, r0, lsl #16
76e05690:	22100002 	andscs	r0, r0, #2
76e05694:	02020000 	andeq	r0, r2, #0
76e05698:	c0114300 	andsgt	r4, r1, r0, lsl #6
76e0569c:	42200002 	eormi	r0, r0, #2
76e056a0:	aab4c111 	bge	0x75b35aec
76e056a4:	80148443 	andshi	r8, r4, r3, asr #8
76e056a8:	66294110 			; <UNDEFINED> instruction: 0x66294110
76e056ac:	6807608c 	stmdavs	r7, {r2, r3, r7, sp, lr}
76e056b0:	3e600080 	cdpcc	0, 6, cr0, cr0, cr0, {4}
76e056b4:	00008112 	andeq	r8, r0, r2, lsl r1
76e056b8:	92c2a220 	sbcls	sl, r2, #32, 4
76e056bc:	00408010 	subeq	r8, r0, r0, lsl r0
76e056c0:	41180480 	tstmi	r8, r0, lsl #9
76e056c4:	088800b1 	stmeq	r8, {r0, r4, r5, r7}
76e056c8:	01300a1c 	teqeq	r0, ip, lsl sl
76e056cc:	ae00c241 	cdpge	2, 0, cr12, cr0, cr1, {2}
76e056d0:	01008a30 	tsteq	r0, r0, lsr sl
76e056d4:	48d14420 	ldmmi	r1, {r5, sl, lr}^
76e056d8:	14300ca0 	ldrtne	r0, [r0], #-3232	; 0xca0
76e056dc:	4100e034 	tstmi	r0, r4, lsr r0
76e056e0:	1910b000 	ldmdbne	r0, {ip, sp, pc}
76e056e4:	08d01984 	ldmeq	r0, {r2, r7, r8, fp, ip}^
76e056e8:	44818280 	strmi	r8, [r1], #640	; 0x280
76e056ec:	8030214a 	eorshi	r2, r0, sl, asr #2
76e056f0:	80800320 	addhi	r0, r0, r0, lsr #6
76e056f4:	12281108 	eorne	r1, r8, #8, 2
76e056f8:	50004500 	andpl	r4, r0, r0, lsl #10
76e056fc:	0000110a 	andeq	r1, r0, sl, lsl #2
76e05700:	11010400 	tstne	r1, r0, lsl #8
76e05704:	04000008 	streq	r0, [r0], #-8
76e05708:	004000a1 	subeq	r0, r0, r1, lsr #1
76e0570c:	00109b09 	andseq	r9, r0, r9, lsl #22
76e05710:	02418000 	subeq	r8, r1, #0
76e05714:	494aa8d0 	stmdbmi	sl, {r4, r6, r7, fp, sp, pc}^
76e05718:	213470c0 	teqcs	r4, r0, asr #1
76e0571c:	0263e412 	rsbeq	lr, r3, #301989888	; 0x12000000
76e05720:	03110892 	tsteq	r1, #9568256	; 0x920000
76e05724:	016a9374 	smceq	43316	; 0xa934
76e05728:	00600252 	rsbeq	r0, r0, r2, asr r2
76e0572c:	60004008 	andvs	r4, r0, r8
76e05730:	0080d048 	addeq	sp, r0, r8, asr #32
76e05734:	47865688 	strmi	r5, [r6, r8, lsl #13]
76e05738:	00000500 	andeq	r0, r0, r0, lsl #10
76e0573c:	02007808 	andeq	r7, r0, #8, 16	; 0x80000
76e05740:	9e090005 	cdpls	0, 0, cr0, cr9, cr5, {0}
76e05744:	183a5432 	ldmdane	sl!, {r1, r4, r5, sl, ip, lr}
76e05748:	2ee50740 	cdpcs	7, 14, cr0, cr5, cr0, {2}
76e0574c:	a8200963 	stmdage	r0!, {r0, r1, r5, r6, r8, fp}
76e05750:	a4000290 	strge	r0, [r0], #-656	; 0x290
76e05754:	22329101 	eorscs	r9, r2, #1073741824	; 0x40000000
76e05758:	b10ce711 	tstlt	ip, r1, lsl r7
76e0575c:	0049010e 	subeq	r0, r9, lr, lsl #2
76e05760:	04000008 	streq	r0, [r0], #-8
76e05764:	c7650dc6 	strbgt	r0, [r5, -r6, asr #27]!
76e05768:	04840100 	streq	r0, [r4], #256	; 0x100
76e0576c:	00030280 	andeq	r0, r3, r0, lsl #5
76e05770:	00080002 	andeq	r0, r8, r2
76e05774:	e4e2e967 	strbt	lr, [r2], #2407	; 0x967
76e05778:	9418a29c 	ldrls	sl, [r8], #-668	; 0x29c
76e0577c:	080004b7 	stmdaeq	r0, {r0, r1, r2, r4, r5, r7, sl}
76e05780:	08808823 	stmeq	r0, {r0, r1, r5, fp, pc}
76e05784:	808508c0 	addhi	r0, r5, r0, asr #17
76e05788:	200280d0 	ldrdcs	r8, [r2], -r0
76e0578c:	4295024c 	addsmi	r0, r5, #76, 4	; 0xc0000004
76e05790:	1864e100 	stmdane	r4!, {r8, sp, lr, pc}^
76e05794:	0879901e 	ldmdaeq	r9!, {r1, r2, r3, r4, ip, pc}^
76e05798:	13004063 	movwne	r4, #99	; 0x63
76e0579c:	09000124 	stmdbeq	r0, {r2, r5, r8}
76e057a0:	28a03c29 	stmiacs	r0!, {r0, r3, r5, sl, fp, ip, sp}
76e057a4:	60600641 	rsbvs	r0, r0, r1, asr #12
76e057a8:	08003008 	stmdaeq	r0, {r3, ip, sp}
76e057ac:	126986e8 	rsbne	r8, r9, #232, 12	; 0xe800000
76e057b0:	3512a407 	ldrcc	sl, [r2, #-1031]	; 0x407
76e057b4:	193220e0 	ldmdbne	r2!, {r5, r6, r7, sp}
76e057b8:	0203a22c 	andeq	sl, r3, #44, 4	; 0xc0000002
76e057bc:	88603002 	stmdahi	r0!, {r1, ip, sp}^
76e057c0:	04c90040 	strbeq	r0, [r9], #64	; 0x40
76e057c4:	30458400 	subcc	r8, r5, r0, lsl #8
76e057c8:	10402011 	subne	r2, r0, r1, lsl r0
76e057cc:	a0000000 	andge	r0, r0, r0
76e057d0:	24a38f11 	strtcs	r8, [r3], #3857	; 0xf11
76e057d4:	00021080 	andeq	r1, r2, r0, lsl #1
76e057d8:	88c00000 	stmiahi	r0, {}^	; <UNPREDICTABLE>
76e057dc:	02006644 	andeq	r6, r0, #68, 12	; 0x4400000
76e057e0:	83d4c065 	bicshi	ip, r4, #101	; 0x65
76e057e4:	14916a09 	ldrne	r6, [r1], #2569	; 0xa09
76e057e8:	43a6be81 			; <UNDEFINED> instruction: 0x43a6be81
76e057ec:	00000000 	andeq	r0, r0, r0
76e057f0:	1c840612 	stcne	6, cr0, [r4], {18}
76e057f4:	002d3004 	eoreq	r3, sp, r4
76e057f8:	00028223 	andeq	r8, r2, r3, lsr #4
76e057fc:	50020476 	andpl	r0, r2, r6, ror r4
76e05800:	15218c08 	strne	r8, [r1, #-3080]!	; 0xc08
76e05804:	00252000 	eoreq	r2, r5, r0
76e05808:	24e6000c 	strbtcs	r0, [r6], #12
76e0580c:	47414002 	strbmi	r4, [r1, -r2]
76e05810:	c130a381 	teqgt	r0, r1, lsl #7
76e05814:	02034006 	andeq	r4, r3, #6
76e05818:	00200101 	eoreq	r0, r0, r1, lsl #2
76e0581c:	4d849d82 	stcmi	13, cr9, [r4, #520]	; 0x208
76e05820:	40202010 	eormi	r2, r0, r0, lsl r0
76e05824:	04024c06 	streq	r4, [r2], #-3078	; 0xc06
76e05828:	4040242e 	submi	r2, r0, lr, lsr #8
76e0582c:	89402248 	stmdbhi	r0, {r3, r6, r9, sp}^
76e05830:	000a2210 	andeq	r2, sl, r0, lsl r2
76e05834:	0128a282 	smlawbeq	r8, r2, r2, sl
76e05838:	30410048 	subcc	r0, r1, r8, asr #32
76e0583c:	4a048002 	bmi	0x76f2584c
76e05840:	44455980 	strbmi	r5, [r5], #-2432	; 0x980
76e05844:	a0001300 	andge	r1, r0, r0, lsl #6
76e05848:	53000610 	movwpl	r0, #1552	; 0x610
76e0584c:	00010c06 	andeq	r0, r1, r6, lsl #24
76e05850:	08202010 	stmdaeq	r0!, {r4, sp}
76e05854:	0001c301 	andeq	ip, r1, r1, lsl #6
76e05858:	04008044 	streq	r8, [r0], #-68	; 0x44
76e0585c:	38804026 	stmcc	r0, {r1, r2, r5, lr}
76e05860:	0c670011 	stcleq	0, cr0, [r7], #-68	; 0xffffffbc
76e05864:	40b84220 	adcsmi	r4, r8, r0, lsr #4
76e05868:	02e84286 	rsceq	r4, r8, #1610612744	; 0x60000008
76e0586c:	42460098 	submi	r0, r6, #152	; 0x98
76e05870:	8800c504 	stmdahi	r0, {r2, r8, sl, lr, pc}
76e05874:	0026000b 	eoreq	r0, r6, fp
76e05878:	720c0320 	andvc	r0, ip, #32, 6	; 0x80000000
76e0587c:	a0010420 	andge	r0, r1, r0, lsr #8
76e05880:	00100881 	andseq	r0, r0, r1, lsl #17
76e05884:	018a002c 	orreq	r0, sl, ip, lsr #32
76e05888:	91032c80 	smlabbls	r3, r0, ip, r2
76e0588c:	00020664 	andeq	r0, r2, r4, ror #12
76e05890:	a9618582 	stmdbge	r1!, {r1, r7, r8, sl, pc}^
76e05894:	10221008 	eorne	r1, r2, r8
76e05898:	406605e4 	rsbmi	r0, r6, r4, ror #11
76e0589c:	36180408 	ldrcc	r0, [r8], -r8, lsl #8
76e058a0:	00000000 	andeq	r0, r0, r0
76e058a4:	78001000 	stmdavc	r0, {ip}
76e058a8:	1349040a 	movtne	r0, #37898	; 0x940a
76e058ac:	08e31820 	stmiaeq	r3!, {r5, fp, ip}^
76e058b0:	a1680810 	cmnge	r8, r0, lsl r8
76e058b4:	02310000 	eorseq	r0, r1, #0
76e058b8:	00e04002 	rsceq	r4, r0, r2
76e058bc:	1081fff1 	strdne	pc, [r1], r1
76e058c0:	02408725 	subeq	r8, r0, #9699328	; 0x940000
76e058c4:	30042330 	andcc	r2, r4, r0, lsr r3
76e058c8:	c34eb81e 	movtgt	fp, #59422	; 0xe81e
76e058cc:	20212040 	eorcs	r2, r1, r0, asr #32
76e058d0:	4081c282 	addmi	ip, r1, r2, lsl #5
76e058d4:	2264b100 	rsbcs	fp, r4, #0, 2
76e058d8:	00006ca0 	andeq	r6, r0, r0, lsr #25
76e058dc:	29150633 	ldmdbcs	r5, {r0, r1, r4, r5, r9, sl}
76e058e0:	00602040 	rsbeq	r2, r0, r0, asr #32
76e058e4:	10185000 	andsne	r5, r8, r0
76e058e8:	80110010 	andshi	r0, r1, r0, lsl r0
76e058ec:	1a018ea3 	bne	0x76e69380
76e058f0:	000450a0 	andeq	r5, r4, r0, lsr #1
76e058f4:	44900021 	ldrmi	r0, [r0], #33	; 0x21
76e058f8:	85d6d381 	ldrbhi	sp, [r6, #897]	; 0x381
76e058fc:	10200000 	eorne	r0, r0, r0
76e05900:	0b002500 	bleq	0x76e0ed08
76e05904:	12230142 	eorne	r0, r3, #-2147483632	; 0x80000010
76e05908:	c4880008 	strgt	r0, [r8], #8
76e0590c:	0c840140 	stfeqs	f0, [r4], {64}	; 0x40
76e05910:	91002041 	tstls	r0, r1, asr #32
76e05914:	69807081 	stmibvs	r0, {r0, r7, ip, sp, lr}
76e05918:	05808b80 	streq	r8, [r0, #2944]	; 0xb80
76e0591c:	88022018 	stmdahi	r2, {r3, r4, sp}
76e05920:	043e1608 	ldrteq	r1, [lr], #-1544	; 0x608
76e05924:	62dd615f 	sbcsvs	r6, sp, #-1073741801	; 0xc0000017
76e05928:	03223789 	teqeq	r2, #35913728	; 0x2240000
76e0592c:	b0304000 	eorslt	r4, r0, r0
76e05930:	0825c105 	stmdaeq	r5!, {r0, r2, r8, lr, pc}
76e05934:	00920084 	addseq	r0, r2, r4, lsl #1
76e05938:	00000801 	andeq	r0, r0, r1, lsl #16
76e0593c:	00120008 	andseq	r0, r2, r8
76e05940:	42520b18 	subsmi	r0, r2, #24, 22	; 0x6000
76e05944:	02500008 	subseq	r0, r0, #8
76e05948:	14088001 	strne	r8, [r8], #-1
76e0594c:	100004ea 	andne	r0, r0, sl, ror #9
76e05950:	c040901c 	subgt	r9, r0, ip, lsl r0
76e05954:	10100009 	andsne	r0, r0, r9
76e05958:	1007412c 	andne	r4, r7, ip, lsr #2
76e0595c:	ff0180c0 			; <UNDEFINED> instruction: 0xff0180c0
76e05960:	0db05402 	cfldrseq	mvf5, [r0, #8]!
76e05964:	7000130e 	andvc	r1, r0, lr, lsl #6
76e05968:	c2000084 	andgt	r0, r0, #132	; 0x84
76e0596c:	00111010 	andseq	r1, r1, r0, lsl r0
76e05970:	001b3a8e 	andseq	r3, fp, lr, lsl #21
76e05974:	18e84881 	stmiane	r8!, {r0, r7, fp, lr}^
76e05978:	c4204010 	strtgt	r4, [r0], #-16
76e0597c:	40024918 	andmi	r4, r2, r8, lsl r9
76e05980:	f0141420 			; <UNDEFINED> instruction: 0xf0141420
76e05984:	00080010 	andeq	r0, r8, r0, lsl r0
76e05988:	2d0c0188 	stfcss	f0, [ip, #-544]	; 0xfffffde0
76e0598c:	16a10000 	strtne	r0, [r1], r0
76e05990:	22002182 	andcs	r2, r0, #-2147483616	; 0x80000020
76e05994:	3014e008 	andscc	lr, r4, r8
76e05998:	1180e080 	orrne	lr, r0, r0, lsl #1
76e0599c:	00111580 	andseq	r1, r1, r0, lsl #11
76e059a0:	483d2028 	ldmdami	sp!, {r3, r5, sp}
76e059a4:	00000000 	andeq	r0, r0, r0
76e059a8:	0000000b 	andeq	r0, r0, fp
76e059ac:	0000000e 	andeq	r0, r0, lr
76e059b0:	00000010 	andeq	r0, r0, r0, lsl r0
76e059b4:	00000013 	andeq	r0, r0, r3, lsl r0
76e059b8:	00000016 	andeq	r0, r0, r6, lsl r0
76e059bc:	00000017 	andeq	r0, r0, r7, lsl r0
76e059c0:	00000018 	andeq	r0, r0, r8, lsl r0
76e059c4:	00000019 	andeq	r0, r0, r9, lsl r0
76e059c8:	0000001b 	andeq	r0, r0, fp, lsl r0
76e059cc:	0000001d 	andeq	r0, r0, sp, lsl r0
76e059d0:	00000020 	andeq	r0, r0, r0, lsr #32
76e059d4:	00000022 	andeq	r0, r0, r2, lsr #32
76e059d8:	00000024 	andeq	r0, r0, r4, lsr #32
76e059dc:	00000026 	andeq	r0, r0, r6, lsr #32
76e059e0:	00000028 	andeq	r0, r0, r8, lsr #32
76e059e4:	0000002a 	andeq	r0, r0, sl, lsr #32
76e059e8:	0000002b 	andeq	r0, r0, fp, lsr #32
76e059ec:	0000002d 	andeq	r0, r0, sp, lsr #32
	...
76e059f8:	0000002f 	andeq	r0, r0, pc, lsr #32
76e059fc:	00000031 	andeq	r0, r0, r1, lsr r0
76e05a00:	00000000 	andeq	r0, r0, r0
76e05a04:	00000032 	andeq	r0, r0, r2, lsr r0
76e05a08:	00000000 	andeq	r0, r0, r0
76e05a0c:	00000036 	andeq	r0, r0, r6, lsr r0
76e05a10:	00000039 	andeq	r0, r0, r9, lsr r0
76e05a14:	0000003c 	andeq	r0, r0, ip, lsr r0
76e05a18:	0000003e 	andeq	r0, r0, lr, lsr r0
76e05a1c:	00000041 	andeq	r0, r0, r1, asr #32
76e05a20:	00000042 	andeq	r0, r0, r2, asr #32
76e05a24:	00000045 	andeq	r0, r0, r5, asr #32
76e05a28:	00000046 	andeq	r0, r0, r6, asr #32
76e05a2c:	00000048 	andeq	r0, r0, r8, asr #32
76e05a30:	0000004a 	andeq	r0, r0, sl, asr #32
76e05a34:	0000004d 	andeq	r0, r0, sp, asr #32
76e05a38:	0000004f 	andeq	r0, r0, pc, asr #32
76e05a3c:	00000051 	andeq	r0, r0, r1, asr r0
76e05a40:	00000052 	andeq	r0, r0, r2, asr r0
76e05a44:	00000054 	andeq	r0, r0, r4, asr r0
76e05a48:	00000000 	andeq	r0, r0, r0
76e05a4c:	00000055 	andeq	r0, r0, r5, asr r0
76e05a50:	00000057 	andeq	r0, r0, r7, asr r0
76e05a54:	0000005b 	andeq	r0, r0, fp, asr r0
76e05a58:	0000005f 	andeq	r0, r0, pc, asr r0
76e05a5c:	00000063 	andeq	r0, r0, r3, rrx
76e05a60:	00000065 	andeq	r0, r0, r5, rrx
76e05a64:	00000067 	andeq	r0, r0, r7, rrx
76e05a68:	00000068 	andeq	r0, r0, r8, rrx
76e05a6c:	0000006a 	andeq	r0, r0, sl, rrx
76e05a70:	0000006c 	andeq	r0, r0, ip, rrx
76e05a74:	0000006e 	andeq	r0, r0, lr, rrx
76e05a78:	00000070 	andeq	r0, r0, r0, ror r0
76e05a7c:	00000074 	andeq	r0, r0, r4, ror r0
76e05a80:	00000078 	andeq	r0, r0, r8, ror r0
76e05a84:	0000007a 	andeq	r0, r0, sl, ror r0
76e05a88:	0000007e 	andeq	r0, r0, lr, ror r0
76e05a8c:	00000080 	andeq	r0, r0, r0, lsl #1
76e05a90:	00000083 	andeq	r0, r0, r3, lsl #1
76e05a94:	00000086 	andeq	r0, r0, r6, lsl #1
76e05a98:	00000000 	andeq	r0, r0, r0
76e05a9c:	00000089 	andeq	r0, r0, r9, lsl #1
76e05aa0:	0000008b 	andeq	r0, r0, fp, lsl #1
76e05aa4:	0000008e 	andeq	r0, r0, lr, lsl #1
76e05aa8:	00000000 	andeq	r0, r0, r0
76e05aac:	00000090 	muleq	r0, r0, r0
76e05ab0:	00000093 	muleq	r0, r3, r0
76e05ab4:	00000096 	muleq	r0, r6, r0
76e05ab8:	00000098 	muleq	r0, r8, r0
76e05abc:	0000009a 	muleq	r0, sl, r0
76e05ac0:	00000000 	andeq	r0, r0, r0
76e05ac4:	0000009d 	muleq	r0, sp, r0
76e05ac8:	0000009f 	muleq	r0, pc, r0	; <UNPREDICTABLE>
76e05acc:	000000a0 	andeq	r0, r0, r0, lsr #1
76e05ad0:	000000a1 	andeq	r0, r0, r1, lsr #1
76e05ad4:	000000a5 	andeq	r0, r0, r5, lsr #1
76e05ad8:	000000a8 	andeq	r0, r0, r8, lsr #1
76e05adc:	000000ad 	andeq	r0, r0, sp, lsr #1
76e05ae0:	000000ae 	andeq	r0, r0, lr, lsr #1
76e05ae4:	000000af 	andeq	r0, r0, pc, lsr #1
76e05ae8:	000000b0 	strheq	r0, [r0], -r0	; <UNPREDICTABLE>
76e05aec:	000000b3 	strheq	r0, [r0], -r3
76e05af0:	000000b5 	strheq	r0, [r0], -r5
76e05af4:	000000b8 	strheq	r0, [r0], -r8
76e05af8:	000000b9 	strheq	r0, [r0], -r9
76e05afc:	000000bb 	strheq	r0, [r0], -fp
76e05b00:	00000000 	andeq	r0, r0, r0
76e05b04:	000000bc 	strheq	r0, [r0], -ip
76e05b08:	000000be 	strheq	r0, [r0], -lr
76e05b0c:	000000c1 	andeq	r0, r0, r1, asr #1
76e05b10:	000000c4 	andeq	r0, r0, r4, asr #1
76e05b14:	000000c7 	andeq	r0, r0, r7, asr #1
76e05b18:	000000c8 	andeq	r0, r0, r8, asr #1
76e05b1c:	000000ca 	andeq	r0, r0, sl, asr #1
76e05b20:	000000cc 	andeq	r0, r0, ip, asr #1
76e05b24:	000000ce 	andeq	r0, r0, lr, asr #1
76e05b28:	000000d0 	ldrdeq	r0, [r0], -r0	; <UNPREDICTABLE>
76e05b2c:	000000d2 	ldrdeq	r0, [r0], -r2
76e05b30:	000000d4 	ldrdeq	r0, [r0], -r4
76e05b34:	00000000 	andeq	r0, r0, r0
76e05b38:	000000d5 	ldrdeq	r0, [r0], -r5
76e05b3c:	000000d7 	ldrdeq	r0, [r0], -r7
76e05b40:	000000d8 	ldrdeq	r0, [r0], -r8
76e05b44:	000000da 	ldrdeq	r0, [r0], -sl
76e05b48:	000000dd 	ldrdeq	r0, [r0], -sp
76e05b4c:	000000e0 	andeq	r0, r0, r0, ror #1
76e05b50:	00000000 	andeq	r0, r0, r0
76e05b54:	000000e1 	andeq	r0, r0, r1, ror #1
76e05b58:	00000000 	andeq	r0, r0, r0
76e05b5c:	000000e2 	andeq	r0, r0, r2, ror #1
76e05b60:	000000e3 	andeq	r0, r0, r3, ror #1
76e05b64:	000000e5 	andeq	r0, r0, r5, ror #1
76e05b68:	000000ea 	andeq	r0, r0, sl, ror #1
76e05b6c:	000000eb 	andeq	r0, r0, fp, ror #1
76e05b70:	000000ed 	andeq	r0, r0, sp, ror #1
76e05b74:	000000ef 	andeq	r0, r0, pc, ror #1
76e05b78:	000000f0 	strdeq	r0, [r0], -r0	; <UNPREDICTABLE>
76e05b7c:	000000f3 	strdeq	r0, [r0], -r3
76e05b80:	000000f4 	strdeq	r0, [r0], -r4
76e05b84:	00000000 	andeq	r0, r0, r0
76e05b88:	000000f5 	strdeq	r0, [r0], -r5
76e05b8c:	00000000 	andeq	r0, r0, r0
76e05b90:	000000f7 	strdeq	r0, [r0], -r7
76e05b94:	00000000 	andeq	r0, r0, r0
76e05b98:	000000f9 	strdeq	r0, [r0], -r9
76e05b9c:	000000fa 	strdeq	r0, [r0], -sl
76e05ba0:	000000fc 	strdeq	r0, [r0], -ip
76e05ba4:	000000ff 	strdeq	r0, [r0], -pc	; <UNPREDICTABLE>
76e05ba8:	00000000 	andeq	r0, r0, r0
76e05bac:	00000100 	andeq	r0, r0, r0, lsl #2
76e05bb0:	00000103 	andeq	r0, r0, r3, lsl #2
76e05bb4:	00000105 	andeq	r0, r0, r5, lsl #2
76e05bb8:	00000107 	andeq	r0, r0, r7, lsl #2
76e05bbc:	0000010b 	andeq	r0, r0, fp, lsl #2
76e05bc0:	0000010e 	andeq	r0, r0, lr, lsl #2
76e05bc4:	00000111 	andeq	r0, r0, r1, lsl r1
76e05bc8:	00000116 	andeq	r0, r0, r6, lsl r1
	...
76e05bd4:	00000118 	andeq	r0, r0, r8, lsl r1
76e05bd8:	0000011a 	andeq	r0, r0, sl, lsl r1
76e05bdc:	0000011b 	andeq	r0, r0, fp, lsl r1
76e05be0:	0000011c 	andeq	r0, r0, ip, lsl r1
76e05be4:	0000011e 	andeq	r0, r0, lr, lsl r1
76e05be8:	00000122 	andeq	r0, r0, r2, lsr #2
76e05bec:	00000124 	andeq	r0, r0, r4, lsr #2
76e05bf0:	00000126 	andeq	r0, r0, r6, lsr #2
76e05bf4:	00000127 	andeq	r0, r0, r7, lsr #2
76e05bf8:	00000129 	andeq	r0, r0, r9, lsr #2
76e05bfc:	0000012c 	andeq	r0, r0, ip, lsr #2
76e05c00:	0000012e 	andeq	r0, r0, lr, lsr #2
76e05c04:	00000130 	andeq	r0, r0, r0, lsr r1
76e05c08:	00000132 	andeq	r0, r0, r2, lsr r1
76e05c0c:	00000134 	andeq	r0, r0, r4, lsr r1
76e05c10:	0000013a 	andeq	r0, r0, sl, lsr r1
76e05c14:	0000013f 	andeq	r0, r0, pc, lsr r1
76e05c18:	00000140 	andeq	r0, r0, r0, asr #2
76e05c1c:	00000143 	andeq	r0, r0, r3, asr #2
76e05c20:	00000145 	andeq	r0, r0, r5, asr #2
	...
76e05c2c:	00000149 	andeq	r0, r0, r9, asr #2
76e05c30:	0000014d 	andeq	r0, r0, sp, asr #2
76e05c34:	00000000 	andeq	r0, r0, r0
76e05c38:	0000014f 	andeq	r0, r0, pc, asr #2
76e05c3c:	00000151 	andeq	r0, r0, r1, asr r1
76e05c40:	00000154 	andeq	r0, r0, r4, asr r1
76e05c44:	00000156 	andeq	r0, r0, r6, asr r1
76e05c48:	00000158 	andeq	r0, r0, r8, asr r1
76e05c4c:	0000015d 	andeq	r0, r0, sp, asr r1
76e05c50:	0000015f 	andeq	r0, r0, pc, asr r1
76e05c54:	00000161 	andeq	r0, r0, r1, ror #2
76e05c58:	00000162 	andeq	r0, r0, r2, ror #2
76e05c5c:	00000163 	andeq	r0, r0, r3, ror #2
76e05c60:	00000165 	andeq	r0, r0, r5, ror #2
76e05c64:	00000166 	andeq	r0, r0, r6, ror #2
76e05c68:	00000000 	andeq	r0, r0, r0
76e05c6c:	0000016a 	andeq	r0, r0, sl, ror #2
76e05c70:	0000016b 	andeq	r0, r0, fp, ror #2
76e05c74:	0000016e 	andeq	r0, r0, lr, ror #2
76e05c78:	00000171 	andeq	r0, r0, r1, ror r1
76e05c7c:	00000176 	andeq	r0, r0, r6, ror r1
76e05c80:	00000179 	andeq	r0, r0, r9, ror r1
76e05c84:	0000017d 	andeq	r0, r0, sp, ror r1
76e05c88:	0000017f 	andeq	r0, r0, pc, ror r1
76e05c8c:	00000182 	andeq	r0, r0, r2, lsl #3
76e05c90:	00000183 	andeq	r0, r0, r3, lsl #3
76e05c94:	00000185 	andeq	r0, r0, r5, lsl #3
76e05c98:	00000186 	andeq	r0, r0, r6, lsl #3
76e05c9c:	0000018a 	andeq	r0, r0, sl, lsl #3
76e05ca0:	0000018c 	andeq	r0, r0, ip, lsl #3
76e05ca4:	0000018f 	andeq	r0, r0, pc, lsl #3
76e05ca8:	00000191 	muleq	r0, r1, r1
76e05cac:	00000192 	muleq	r0, r2, r1
76e05cb0:	00000195 	muleq	r0, r5, r1
76e05cb4:	00000197 	muleq	r0, r7, r1
76e05cb8:	0000019a 	muleq	r0, sl, r1
76e05cbc:	0000019c 	muleq	r0, ip, r1
76e05cc0:	0000019e 	muleq	r0, lr, r1
76e05cc4:	000001a0 	andeq	r0, r0, r0, lsr #3
76e05cc8:	000001a3 	andeq	r0, r0, r3, lsr #3
76e05ccc:	000001a7 	andeq	r0, r0, r7, lsr #3
76e05cd0:	000001a9 	andeq	r0, r0, r9, lsr #3
76e05cd4:	000001ad 	andeq	r0, r0, sp, lsr #3
76e05cd8:	000001ae 	andeq	r0, r0, lr, lsr #3
76e05cdc:	000001af 	andeq	r0, r0, pc, lsr #3
76e05ce0:	000001b4 			; <UNDEFINED> instruction: 0x000001b4
76e05ce4:	000001b5 			; <UNDEFINED> instruction: 0x000001b5
76e05ce8:	000001b6 			; <UNDEFINED> instruction: 0x000001b6
76e05cec:	000001b9 			; <UNDEFINED> instruction: 0x000001b9
76e05cf0:	000001ba 			; <UNDEFINED> instruction: 0x000001ba
76e05cf4:	000001be 			; <UNDEFINED> instruction: 0x000001be
76e05cf8:	000001c1 	andeq	r0, r0, r1, asr #3
76e05cfc:	000001c3 	andeq	r0, r0, r3, asr #3
76e05d00:	000001c4 	andeq	r0, r0, r4, asr #3
76e05d04:	000001c5 	andeq	r0, r0, r5, asr #3
76e05d08:	000001c6 	andeq	r0, r0, r6, asr #3
76e05d0c:	000001c9 	andeq	r0, r0, r9, asr #3
76e05d10:	000001cb 	andeq	r0, r0, fp, asr #3
76e05d14:	000001cc 	andeq	r0, r0, ip, asr #3
76e05d18:	000001cf 	andeq	r0, r0, pc, asr #3
76e05d1c:	000001d1 	ldrdeq	r0, [r0], -r1
76e05d20:	000001d3 	ldrdeq	r0, [r0], -r3
76e05d24:	000001d4 	ldrdeq	r0, [r0], -r4
76e05d28:	000001d6 	ldrdeq	r0, [r0], -r6
76e05d2c:	00000000 	andeq	r0, r0, r0
76e05d30:	000001d9 	ldrdeq	r0, [r0], -r9
76e05d34:	000001dc 	ldrdeq	r0, [r0], -ip
76e05d38:	000001df 	ldrdeq	r0, [r0], -pc	; <UNPREDICTABLE>
76e05d3c:	000001e1 	andeq	r0, r0, r1, ror #3
76e05d40:	000001e3 	andeq	r0, r0, r3, ror #3
76e05d44:	000001e4 	andeq	r0, r0, r4, ror #3
76e05d48:	00000000 	andeq	r0, r0, r0
76e05d4c:	000001e9 	andeq	r0, r0, r9, ror #3
76e05d50:	000001ea 	andeq	r0, r0, sl, ror #3
76e05d54:	000001eb 	andeq	r0, r0, fp, ror #3
76e05d58:	000001ed 	andeq	r0, r0, sp, ror #3
76e05d5c:	000001ee 	andeq	r0, r0, lr, ror #3
76e05d60:	000001f0 	strdeq	r0, [r0], -r0	; <UNPREDICTABLE>
76e05d64:	000001f1 	strdeq	r0, [r0], -r1
76e05d68:	000001f3 	strdeq	r0, [r0], -r3
76e05d6c:	000001f6 	strdeq	r0, [r0], -r6
76e05d70:	000001fa 	strdeq	r0, [r0], -sl
76e05d74:	000001fb 	strdeq	r0, [r0], -fp
76e05d78:	000001fd 	strdeq	r0, [r0], -sp
76e05d7c:	00000000 	andeq	r0, r0, r0
76e05d80:	00000201 	andeq	r0, r0, r1, lsl #4
76e05d84:	00000203 	andeq	r0, r0, r3, lsl #4
76e05d88:	00000205 	andeq	r0, r0, r5, lsl #4
76e05d8c:	00000206 	andeq	r0, r0, r6, lsl #4
76e05d90:	0000020a 	andeq	r0, r0, sl, lsl #4
76e05d94:	0000020b 	andeq	r0, r0, fp, lsl #4
76e05d98:	0000020c 	andeq	r0, r0, ip, lsl #4
76e05d9c:	0000020d 	andeq	r0, r0, sp, lsl #4
76e05da0:	00000000 	andeq	r0, r0, r0
76e05da4:	0000020f 	andeq	r0, r0, pc, lsl #4
76e05da8:	00000212 	andeq	r0, r0, r2, lsl r2
76e05dac:	00000216 	andeq	r0, r0, r6, lsl r2
76e05db0:	00000219 	andeq	r0, r0, r9, lsl r2
76e05db4:	0000021b 	andeq	r0, r0, fp, lsl r2
76e05db8:	0000021d 	andeq	r0, r0, sp, lsl r2
76e05dbc:	0000021e 	andeq	r0, r0, lr, lsl r2
76e05dc0:	00000220 	andeq	r0, r0, r0, lsr #4
76e05dc4:	00000221 	andeq	r0, r0, r1, lsr #4
76e05dc8:	00000223 	andeq	r0, r0, r3, lsr #4
76e05dcc:	00000225 	andeq	r0, r0, r5, lsr #4
76e05dd0:	00000227 	andeq	r0, r0, r7, lsr #4
76e05dd4:	00000229 	andeq	r0, r0, r9, lsr #4
76e05dd8:	0000022a 	andeq	r0, r0, sl, lsr #4
76e05ddc:	0000022c 	andeq	r0, r0, ip, lsr #4
76e05de0:	0000022f 	andeq	r0, r0, pc, lsr #4
76e05de4:	00000000 	andeq	r0, r0, r0
76e05de8:	00000231 	andeq	r0, r0, r1, lsr r2
76e05dec:	00000233 	andeq	r0, r0, r3, lsr r2
	...
76e05df8:	00000235 	andeq	r0, r0, r5, lsr r2
76e05dfc:	00000238 	andeq	r0, r0, r8, lsr r2
76e05e00:	0000023b 	andeq	r0, r0, fp, lsr r2
76e05e04:	0000023e 	andeq	r0, r0, lr, lsr r2
76e05e08:	00000240 	andeq	r0, r0, r0, asr #4
76e05e0c:	00000241 	andeq	r0, r0, r1, asr #4
76e05e10:	00000243 	andeq	r0, r0, r3, asr #4
76e05e14:	00000244 	andeq	r0, r0, r4, asr #4
76e05e18:	00000245 	andeq	r0, r0, r5, asr #4
76e05e1c:	00000248 	andeq	r0, r0, r8, asr #4
76e05e20:	00000249 	andeq	r0, r0, r9, asr #4
76e05e24:	0000024a 	andeq	r0, r0, sl, asr #4
76e05e28:	0000024d 	andeq	r0, r0, sp, asr #4
76e05e2c:	0000024e 	andeq	r0, r0, lr, asr #4
76e05e30:	00000250 	andeq	r0, r0, r0, asr r2
76e05e34:	00000252 	andeq	r0, r0, r2, asr r2
76e05e38:	00000000 	andeq	r0, r0, r0
76e05e3c:	00000255 	andeq	r0, r0, r5, asr r2
76e05e40:	00000257 	andeq	r0, r0, r7, asr r2
76e05e44:	0000025c 	andeq	r0, r0, ip, asr r2
76e05e48:	0000025f 	andeq	r0, r0, pc, asr r2
76e05e4c:	00000260 	andeq	r0, r0, r0, ror #4
76e05e50:	00000263 	andeq	r0, r0, r3, ror #4
76e05e54:	00000264 	andeq	r0, r0, r4, ror #4
76e05e58:	00000267 	andeq	r0, r0, r7, ror #4
76e05e5c:	00000269 	andeq	r0, r0, r9, ror #4
76e05e60:	0000026d 	andeq	r0, r0, sp, ror #4
76e05e64:	0000026e 	andeq	r0, r0, lr, ror #4
76e05e68:	0000026f 	andeq	r0, r0, pc, ror #4
76e05e6c:	00000275 	andeq	r0, r0, r5, ror r2
76e05e70:	0000027b 	andeq	r0, r0, fp, ror r2
76e05e74:	0000027e 	andeq	r0, r0, lr, ror r2
76e05e78:	00000280 	andeq	r0, r0, r0, lsl #5
76e05e7c:	00000283 	andeq	r0, r0, r3, lsl #5
76e05e80:	00000287 	andeq	r0, r0, r7, lsl #5
76e05e84:	00000288 	andeq	r0, r0, r8, lsl #5
76e05e88:	0000028c 	andeq	r0, r0, ip, lsl #5
76e05e8c:	00000291 	muleq	r0, r1, r2
76e05e90:	00000293 	muleq	r0, r3, r2
76e05e94:	00000297 	muleq	r0, r7, r2
76e05e98:	0000029a 	muleq	r0, sl, r2
76e05e9c:	0000029d 	muleq	r0, sp, r2
76e05ea0:	000002a0 	andeq	r0, r0, r0, lsr #5
76e05ea4:	000002a2 	andeq	r0, r0, r2, lsr #5
76e05ea8:	000002a6 	andeq	r0, r0, r6, lsr #5
76e05eac:	000002a8 	andeq	r0, r0, r8, lsr #5
76e05eb0:	000002aa 	andeq	r0, r0, sl, lsr #5
76e05eb4:	000002af 	andeq	r0, r0, pc, lsr #5
76e05eb8:	00000000 	andeq	r0, r0, r0
76e05ebc:	000002b1 			; <UNDEFINED> instruction: 0x000002b1
76e05ec0:	000002b2 			; <UNDEFINED> instruction: 0x000002b2
76e05ec4:	00000000 	andeq	r0, r0, r0
76e05ec8:	000002b4 			; <UNDEFINED> instruction: 0x000002b4
76e05ecc:	00000000 	andeq	r0, r0, r0
76e05ed0:	000002b8 			; <UNDEFINED> instruction: 0x000002b8
76e05ed4:	000002ba 			; <UNDEFINED> instruction: 0x000002ba
76e05ed8:	000002bd 			; <UNDEFINED> instruction: 0x000002bd
76e05edc:	000002be 			; <UNDEFINED> instruction: 0x000002be
76e05ee0:	000002c1 	andeq	r0, r0, r1, asr #5
76e05ee4:	000002c3 	andeq	r0, r0, r3, asr #5
76e05ee8:	000002c5 	andeq	r0, r0, r5, asr #5
76e05eec:	000002c7 	andeq	r0, r0, r7, asr #5
	...
76e05efc:	000002c8 	andeq	r0, r0, r8, asr #5
76e05f00:	000002cd 	andeq	r0, r0, sp, asr #5
76e05f04:	000002ce 	andeq	r0, r0, lr, asr #5
76e05f08:	000002d3 	ldrdeq	r0, [r0], -r3
76e05f0c:	000002d5 	ldrdeq	r0, [r0], -r5
76e05f10:	000002d7 	ldrdeq	r0, [r0], -r7
76e05f14:	000002d8 	ldrdeq	r0, [r0], -r8
76e05f18:	000002db 	ldrdeq	r0, [r0], -fp
76e05f1c:	000002dd 	ldrdeq	r0, [r0], -sp
76e05f20:	000002de 	ldrdeq	r0, [r0], -lr
76e05f24:	000002e0 	andeq	r0, r0, r0, ror #5
76e05f28:	000002e3 	andeq	r0, r0, r3, ror #5
76e05f2c:	000002e7 	andeq	r0, r0, r7, ror #5
76e05f30:	000002e8 	andeq	r0, r0, r8, ror #5
76e05f34:	00000000 	andeq	r0, r0, r0
76e05f38:	000002e9 	andeq	r0, r0, r9, ror #5
76e05f3c:	00000000 	andeq	r0, r0, r0
76e05f40:	000002ed 	andeq	r0, r0, sp, ror #5
76e05f44:	000002ee 	andeq	r0, r0, lr, ror #5
76e05f48:	000002f2 	strdeq	r0, [r0], -r2
76e05f4c:	000002f3 	strdeq	r0, [r0], -r3
76e05f50:	000002f6 	strdeq	r0, [r0], -r6
76e05f54:	000002f7 	strdeq	r0, [r0], -r7
76e05f58:	000002fa 	strdeq	r0, [r0], -sl
76e05f5c:	000002fc 	strdeq	r0, [r0], -ip
76e05f60:	000002ff 	strdeq	r0, [r0], -pc	; <UNPREDICTABLE>
76e05f64:	00000300 	andeq	r0, r0, r0, lsl #6
76e05f68:	00000301 	andeq	r0, r0, r1, lsl #6
76e05f6c:	00000305 	andeq	r0, r0, r5, lsl #6
76e05f70:	00000000 	andeq	r0, r0, r0
76e05f74:	00000306 	andeq	r0, r0, r6, lsl #6
76e05f78:	0000030a 	andeq	r0, r0, sl, lsl #6
76e05f7c:	0000030e 	andeq	r0, r0, lr, lsl #6
76e05f80:	00000312 	andeq	r0, r0, r2, lsl r3
76e05f84:	00000313 	andeq	r0, r0, r3, lsl r3
76e05f88:	00000316 	andeq	r0, r0, r6, lsl r3
76e05f8c:	0000031a 	andeq	r0, r0, sl, lsl r3
76e05f90:	0000031e 	andeq	r0, r0, lr, lsl r3
76e05f94:	00000323 	andeq	r0, r0, r3, lsr #6
76e05f98:	00000327 	andeq	r0, r0, r7, lsr #6
76e05f9c:	0000032a 	andeq	r0, r0, sl, lsr #6
76e05fa0:	0000032d 	andeq	r0, r0, sp, lsr #6
76e05fa4:	00000331 	andeq	r0, r0, r1, lsr r3
76e05fa8:	00000335 	andeq	r0, r0, r5, lsr r3
76e05fac:	00000337 	andeq	r0, r0, r7, lsr r3
76e05fb0:	00000338 	andeq	r0, r0, r8, lsr r3
76e05fb4:	0000033a 	andeq	r0, r0, sl, lsr r3
76e05fb8:	0000033c 	andeq	r0, r0, ip, lsr r3
76e05fbc:	0000033f 	andeq	r0, r0, pc, lsr r3
76e05fc0:	00000343 	andeq	r0, r0, r3, asr #6
76e05fc4:	00000344 	andeq	r0, r0, r4, asr #6
76e05fc8:	00000346 	andeq	r0, r0, r6, asr #6
76e05fcc:	00000000 	andeq	r0, r0, r0
76e05fd0:	00000348 	andeq	r0, r0, r8, asr #6
76e05fd4:	00000349 	andeq	r0, r0, r9, asr #6
76e05fd8:	0000034c 	andeq	r0, r0, ip, asr #6
76e05fdc:	0000034d 	andeq	r0, r0, sp, asr #6
76e05fe0:	00000000 	andeq	r0, r0, r0
76e05fe4:	0000034f 	andeq	r0, r0, pc, asr #6
76e05fe8:	00000351 	andeq	r0, r0, r1, asr r3
76e05fec:	00000354 	andeq	r0, r0, r4, asr r3
76e05ff0:	00000356 	andeq	r0, r0, r6, asr r3
76e05ff4:	00000359 	andeq	r0, r0, r9, asr r3
76e05ff8:	0000035a 	andeq	r0, r0, sl, asr r3
76e05ffc:	0000035b 	andeq	r0, r0, fp, asr r3

Disassembly of section load8a:

76f4e000 <load8a>:
76f4e000:	464c457f 			; <UNDEFINED> instruction: 0x464c457f
76f4e004:	00010101 	andeq	r0, r1, r1, lsl #2
	...
76f4e010:	00280003 	eoreq	r0, r8, r3
76f4e014:	00000001 	andeq	r0, r0, r1
76f4e018:	00000ac0 	andeq	r0, r0, r0, asr #21
76f4e01c:	00000034 	andeq	r0, r0, r4, lsr r0
76f4e020:	00020990 	muleq	r2, r0, r9
76f4e024:	05000400 	streq	r0, [r0, #-1024]	; 0x400
76f4e028:	00200034 	eoreq	r0, r0, r4, lsr r0
76f4e02c:	00280006 	eoreq	r0, r8, r6
76f4e030:	00150016 	andseq	r0, r5, r6, lsl r0
76f4e034:	70000001 	andvc	r0, r0, r1
76f4e038:	0001f140 	andeq	pc, r1, r0, asr #2
76f4e03c:	0001f140 	andeq	pc, r1, r0, asr #2
76f4e040:	0001f140 	andeq	pc, r1, r0, asr #2
76f4e044:	00000090 	muleq	r0, r0, r0
76f4e048:	00000090 	muleq	r0, r0, r0
76f4e04c:	00000004 	andeq	r0, r0, r4
76f4e050:	00000004 	andeq	r0, r0, r4
76f4e054:	00000001 	andeq	r0, r0, r1
	...
76f4e064:	0001f1d0 	ldrdeq	pc, [r1], -r0
76f4e068:	0001f1d0 	ldrdeq	pc, [r1], -r0
76f4e06c:	00000005 	andeq	r0, r0, r5
76f4e070:	00010000 	andeq	r0, r1, r0
76f4e074:	00000001 	andeq	r0, r0, r1
76f4e078:	0001fc90 	muleq	r1, r0, ip
76f4e07c:	0002fc90 	muleq	r2, r0, ip
76f4e080:	0002fc90 	muleq	r2, r0, ip
76f4e084:	00000bf0 	strdeq	r0, [r0], -r0	; <UNPREDICTABLE>
76f4e088:	00000cc4 	andeq	r0, r0, r4, asr #25
76f4e08c:	00000006 	andeq	r0, r0, r6
76f4e090:	00010000 	andeq	r0, r1, r0
76f4e094:	00000002 	andeq	r0, r0, r2
76f4e098:	0001ff44 	andeq	pc, r1, r4, asr #30
76f4e09c:	0002ff44 	andeq	pc, r2, r4, asr #30
76f4e0a0:	0002ff44 	andeq	pc, r2, r4, asr #30
76f4e0a4:	000000b8 	strheq	r0, [r0], -r8
76f4e0a8:	000000b8 	strheq	r0, [r0], -r8
76f4e0ac:	00000006 	andeq	r0, r0, r6
76f4e0b0:	00000004 	andeq	r0, r0, r4
76f4e0b4:	6474e551 	ldrbtvs	lr, [r4], #-1361	; 0x551
	...
76f4e0cc:	00000006 	andeq	r0, r0, r6
76f4e0d0:	00000010 	andeq	r0, r0, r0, lsl r0
76f4e0d4:	6474e552 	ldrbtvs	lr, [r4], #-1362	; 0x552
76f4e0d8:	0001fc90 	muleq	r1, r0, ip
76f4e0dc:	0002fc90 	muleq	r2, r0, ip
76f4e0e0:	0002fc90 	muleq	r2, r0, ip
76f4e0e4:	00000370 	andeq	r0, r0, r0, ror r3
76f4e0e8:	00000370 	andeq	r0, r0, r0, ror r3
76f4e0ec:	00000004 	andeq	r0, r0, r4
76f4e0f0:	00000001 	andeq	r0, r0, r1
76f4e0f4:	00000011 	andeq	r0, r0, r1, lsl r0
76f4e0f8:	0000001d 	andeq	r0, r0, sp, lsl r0
76f4e0fc:	00000003 	andeq	r0, r0, r3
76f4e100:	00000000 	andeq	r0, r0, r0
76f4e104:	00000019 	andeq	r0, r0, r9, lsl r0
76f4e108:	0000000f 	andeq	r0, r0, pc
76f4e10c:	00000013 	andeq	r0, r0, r3, lsl r0
76f4e110:	00000006 	andeq	r0, r0, r6
76f4e114:	00000008 	andeq	r0, r0, r8
76f4e118:	00000004 	andeq	r0, r0, r4
	...
76f4e124:	00000012 	andeq	r0, r0, r2, lsl r0
76f4e128:	0000000a 	andeq	r0, r0, sl
76f4e12c:	00000007 	andeq	r0, r0, r7
76f4e130:	00000009 	andeq	r0, r0, r9
76f4e134:	00000011 	andeq	r0, r0, r1, lsl r0
76f4e138:	00000010 	andeq	r0, r0, r0, lsl r0
76f4e13c:	0000000b 	andeq	r0, r0, fp
	...
76f4e150:	00000015 	andeq	r0, r0, r5, lsl r0
76f4e154:	0000001a 	andeq	r0, r0, sl, lsl r0
76f4e158:	0000001b 	andeq	r0, r0, fp, lsl r0
76f4e15c:	00000000 	andeq	r0, r0, r0
76f4e160:	00000005 	andeq	r0, r0, r5
76f4e164:	0000001c 	andeq	r0, r0, ip, lsl r0
	...
76f4e174:	0000000c 	andeq	r0, r0, ip
	...
76f4e180:	00000014 	andeq	r0, r0, r4, lsl r0
76f4e184:	00000000 	andeq	r0, r0, r0
76f4e188:	00000017 	andeq	r0, r0, r7, lsl r0
76f4e18c:	0000000d 	andeq	r0, r0, sp
	...
76f4e1a0:	00000016 	andeq	r0, r0, r6, lsl r0
76f4e1a4:	00000018 	andeq	r0, r0, r8, lsl r0
76f4e1a8:	00000000 	andeq	r0, r0, r0
76f4e1ac:	0000000e 	andeq	r0, r0, lr
76f4e1b0:	00000000 	andeq	r0, r0, r0
76f4e1b4:	00000011 	andeq	r0, r0, r1, lsl r0
76f4e1b8:	00000003 	andeq	r0, r0, r3
76f4e1bc:	00000008 	andeq	r0, r0, r8
76f4e1c0:	00000008 	andeq	r0, r0, r8
76f4e1c4:	00400400 	subeq	r0, r0, r0, lsl #8
76f4e1c8:	3401203d 	strcc	r2, [r1], #-61	; 0x3d
76f4e1cc:	44200280 	strtmi	r0, [r0], #-640	; 0x280
76f4e1d0:	0080050d 	addeq	r0, r0, sp, lsl #10
76f4e1d4:	004b0880 	subeq	r0, fp, r0, lsl #17
76f4e1d8:	10100ac0 	andsne	r0, r0, r0, asr #21
76f4e1dc:	22804480 	addcs	r4, r0, #128, 8	; 0x80000000
76f4e1e0:	004c8402 	subeq	r8, ip, r2, lsl #8
76f4e1e4:	00000000 	andeq	r0, r0, r0
76f4e1e8:	00000003 	andeq	r0, r0, r3
76f4e1ec:	00000005 	andeq	r0, r0, r5
76f4e1f0:	00000006 	andeq	r0, r0, r6
76f4e1f4:	00000000 	andeq	r0, r0, r0
76f4e1f8:	00000008 	andeq	r0, r0, r8
76f4e1fc:	0000000b 	andeq	r0, r0, fp
76f4e200:	0000000c 	andeq	r0, r0, ip
76f4e204:	0000000d 	andeq	r0, r0, sp
76f4e208:	0000000e 	andeq	r0, r0, lr
76f4e20c:	00000011 	andeq	r0, r0, r1, lsl r0
76f4e210:	00000012 	andeq	r0, r0, r2, lsl r0
76f4e214:	00000013 	andeq	r0, r0, r3, lsl r0
76f4e218:	00000014 	andeq	r0, r0, r4, lsl r0
76f4e21c:	00000015 	andeq	r0, r0, r5, lsl r0
76f4e220:	00000016 	andeq	r0, r0, r6, lsl r0
76f4e224:	0000001a 	andeq	r0, r0, sl, lsl r0
76f4e228:	a1fa6ad6 	ldrsbge	r6, [sl, #166]!	; 0xa6
76f4e22c:	69f99cab 	ldmibvs	r9!, {r0, r1, r3, r5, r7, sl, fp, ip, pc}^
76f4e230:	0692a261 	ldreq	sl, [r2], r1, ror #4
76f4e234:	f66c3dd8 			; <UNDEFINED> instruction: 0xf66c3dd8
76f4e238:	7c96f087 	ldcvc	0, cr15, [r6], {135}	; 0x87
76f4e23c:	3de00ec6 	stclcc	14, cr0, [r0, #792]!	; 0x318
76f4e240:	24bbd60a 	ldrtcs	sp, [fp], #1546	; 0x60a
76f4e244:	5475103d 	ldrbtpl	r1, [r5], #-61	; 0x3d
76f4e248:	b54a3769 	strblt	r3, [sl, #-1897]	; 0x769
76f4e24c:	914347a7 	smlaltbls	r4, r3, r7, r7
76f4e250:	ed70d193 	ldfp	f5, [r0, #-588]!	; 0xfffffdb4
76f4e254:	42a5a954 	adcmi	sl, r5, #84, 18	; 0x150000
76f4e258:	f5e616f2 			; <UNDEFINED> instruction: 0xf5e616f2
76f4e25c:	3cbc6423 	cfldrscc	mvf6, [ip], #140	; 0x8c
76f4e260:	7858de49 	ldmdavc	r8, {r0, r3, r6, r9, sl, fp, ip, lr, pc}^
76f4e264:	b1df6b97 			; <UNDEFINED> instruction: 0xb1df6b97
76f4e268:	1ceb853b 	cfstr64ne	mvdx8, [fp], #236	; 0xec
76f4e26c:	b23c806b 	eorslt	r8, ip, #107	; 0x6b
76f4e270:	7c8ad2ef 	sfmvc	f5, 1, [sl], {239}	; 0xef
76f4e274:	866d3a46 	strbthi	r3, [sp], -r6, asr #20
76f4e278:	0d39ad3c 	ldceq	13, cr10, [r9, #-240]!	; 0xffffff10
76f4e27c:	9fd7b9dc 	svcls	0x00d7b9dc
76f4e280:	9f28436b 	svcls	0x0028436b
76f4e284:	07646220 	strbeq	r6, [r4, -r0, lsr #4]!
76f4e288:	f01494a8 			; <UNDEFINED> instruction: 0xf01494a8
76f4e28c:	884601eb 	stmdahi	r6, {r0, r1, r3, r5, r6, r7, r8}^
	...
76f4e2a4:	00000800 	andeq	r0, r0, r0, lsl #16
76f4e2a8:	00000000 	andeq	r0, r0, r0
76f4e2ac:	000a0003 	andeq	r0, sl, r3
76f4e2b0:	00000000 	andeq	r0, r0, r0
76f4e2b4:	0002fc90 	muleq	r2, r0, ip
76f4e2b8:	00000000 	andeq	r0, r0, r0
76f4e2bc:	000e0003 	andeq	r0, lr, r3
76f4e2c0:	000000b1 	strheq	r0, [r0], -r1
76f4e2c4:	000131ac 	andeq	r3, r1, ip, lsr #3
76f4e2c8:	00000020 	andeq	r0, r0, r0, lsr #32
76f4e2cc:	000a0012 	andeq	r0, sl, r2, lsl r0
76f4e2d0:	00000155 	andeq	r0, r0, r5, asr r1
76f4e2d4:	0002fc94 	muleq	r2, r4, ip
76f4e2d8:	00000004 	andeq	r0, r0, r4
76f4e2dc:	000e0011 	andeq	r0, lr, r1, lsl r0
76f4e2e0:	00000195 	muleq	r0, r5, r1
	...
76f4e2ec:	fff10011 			; <UNDEFINED> instruction: 0xfff10011
76f4e2f0:	0000018b 	andeq	r0, r0, fp, lsl #3
	...
76f4e2fc:	fff10011 			; <UNDEFINED> instruction: 0xfff10011
76f4e300:	00000172 	andeq	r0, r0, r2, ror r1
76f4e304:	00018030 	andeq	r8, r1, r0, lsr r0
76f4e308:	00000034 	andeq	r0, r0, r4, lsr r0
76f4e30c:	000a0022 	andeq	r0, sl, r2, lsr #32
76f4e310:	0000010f 	andeq	r0, r0, pc, lsl #2
76f4e314:	00018274 	andeq	r8, r1, r4, ror r2
76f4e318:	00000084 	andeq	r0, r0, r4, lsl #1
76f4e31c:	000a0022 	andeq	r0, sl, r2, lsr #32
76f4e320:	00000144 	andeq	r0, r0, r4, asr #2
76f4e324:	0001351c 	andeq	r3, r1, ip, lsl r5
76f4e328:	00000024 	andeq	r0, r0, r4, lsr #32
76f4e32c:	000a0012 	andeq	r0, sl, r2, lsl r0
76f4e330:	00000169 	andeq	r0, r0, r9, ror #2
76f4e334:	00030940 	andeq	r0, r3, r0, asr #18
76f4e338:	00000014 	andeq	r0, r0, r4, lsl r0
76f4e33c:	00120011 	andseq	r0, r2, r1, lsl r0
76f4e340:	00000040 	andeq	r0, r0, r0, asr #32
76f4e344:	0002ff38 	andeq	pc, r2, r8, lsr pc	; <UNPREDICTABLE>
76f4e348:	00000004 	andeq	r0, r0, r4
76f4e34c:	000e0011 	andeq	r0, lr, r1, lsl r0
76f4e350:	00000063 	andeq	r0, r0, r3, rrx
76f4e354:	00017e9c 	muleq	r1, ip, lr
76f4e358:	00000148 	andeq	r0, r0, r8, asr #2
76f4e35c:	000a0022 	andeq	r0, sl, r2, lsr #32
76f4e360:	0000007a 	andeq	r0, r0, sl, ror r0
76f4e364:	00013540 	andeq	r3, r1, r0, asr #10
76f4e368:	000000a8 	andeq	r0, r0, r8, lsr #1
76f4e36c:	000a0012 	andeq	r0, sl, r2, lsl r0
76f4e370:	0000000e 	andeq	r0, r0, lr
76f4e374:	00014234 	andeq	r4, r1, r4, lsr r2
76f4e378:	0000010c 	andeq	r0, r0, ip, lsl #2
76f4e37c:	000a0012 	andeq	r0, sl, r2, lsl r0
76f4e380:	000000c9 	andeq	r0, r0, r9, asr #1
76f4e384:	00017ff0 	strdeq	r7, [r1], -r0
76f4e388:	00000040 	andeq	r0, r0, r0, asr #32
76f4e38c:	000a0022 	andeq	r0, sl, r2, lsr #32
76f4e390:	000000e0 	andeq	r0, r0, r0, ror #1
76f4e394:	00030884 	andeq	r0, r3, r4, lsl #17
76f4e398:	00000004 	andeq	r0, r0, r4
76f4e39c:	00120011 	andseq	r0, r2, r1, lsl r0
76f4e3a0:	00000139 	andeq	r0, r0, r9, lsr r1
76f4e3a4:	0001226c 	andeq	r2, r1, ip, ror #4
76f4e3a8:	00000498 	muleq	r0, r8, r4
76f4e3ac:	000a0012 	andeq	r0, sl, r2, lsl r0
76f4e3b0:	00000117 	andeq	r0, r0, r7, lsl r1
76f4e3b4:	000130ec 	andeq	r3, r1, ip, ror #1
76f4e3b8:	000000c0 	andeq	r0, r0, r0, asr #1
76f4e3bc:	000a0012 	andeq	r0, sl, r2, lsl r0
76f4e3c0:	000000d0 	ldrdeq	r0, [r0], -r0	; <UNPREDICTABLE>
76f4e3c4:	00010b50 	andeq	r0, r1, r0, asr fp
76f4e3c8:	00000004 	andeq	r0, r0, r4
76f4e3cc:	000a0012 	andeq	r0, sl, r2, lsl r0
76f4e3d0:	00000001 	andeq	r0, r0, r1
76f4e3d4:	00030050 	andeq	r0, r3, r0, asr r0
76f4e3d8:	00000830 	andeq	r0, r0, r0, lsr r8
76f4e3dc:	00110011 	andseq	r0, r1, r1, lsl r0
76f4e3e0:	000000a2 	andeq	r0, r0, r2, lsr #1
76f4e3e4:	0001387c 	andeq	r3, r1, ip, ror r8
76f4e3e8:	0000004c 	andeq	r0, r0, ip, asr #32
76f4e3ec:	000a0012 	andeq	r0, sl, r2, lsl r0
76f4e3f0:	00000026 	andeq	r0, r0, r6, lsr #32
76f4e3f4:	00013cf8 	strdeq	r3, [r1], -r8
76f4e3f8:	000000b4 	strheq	r0, [r0], -r4
76f4e3fc:	000a0012 	andeq	r0, sl, r2, lsl r0
76f4e400:	00000073 	andeq	r0, r0, r3, ror r0
76f4e404:	00017fe4 	andeq	r7, r1, r4, ror #31
76f4e408:	0000000c 	andeq	r0, r0, ip
76f4e40c:	000a0022 	andeq	r0, sl, r2, lsr #32
76f4e410:	000000e9 	andeq	r0, r0, r9, ror #1
76f4e414:	00013254 	andeq	r3, r1, r4, asr r2
76f4e418:	000002c8 	andeq	r0, r0, r8, asr #5
76f4e41c:	000a0012 	andeq	r0, sl, r2, lsl r0
76f4e420:	000000ff 	strdeq	r0, [r0], -pc	; <UNPREDICTABLE>
76f4e424:	0002fcf0 	strdeq	pc, [r2], -r0
76f4e428:	00000228 	andeq	r0, r0, r8, lsr #4
76f4e42c:	000e0011 	andeq	r0, lr, r1, lsl r0
76f4e430:	00000051 	andeq	r0, r0, r1, asr r0
76f4e434:	0002fce8 	andeq	pc, r2, r8, ror #25
76f4e438:	00000004 	andeq	r0, r0, r4
76f4e43c:	000e0011 	andeq	r0, lr, r1, lsl r0
76f4e440:	0000008d 	andeq	r0, r0, sp, lsl #1
76f4e444:	0002ff3c 	andeq	pc, r2, ip, lsr pc	; <UNPREDICTABLE>
76f4e448:	00000004 	andeq	r0, r0, r4
76f4e44c:	000e0011 	andeq	r0, lr, r1, lsl r0
76f4e450:	00000125 	andeq	r0, r0, r5, lsr #2
76f4e454:	00009378 	andeq	r9, r0, r8, ror r3
76f4e458:	000001dc 	ldrdeq	r0, [r0], -ip
76f4e45c:	000a0012 	andeq	r0, sl, r2, lsl r0
76f4e460:	74725f00 	ldrbtvc	r5, [r2], #-3840	; 0xf00
76f4e464:	675f646c 	ldrbvs	r6, [pc, -ip, ror #8]
76f4e468:	61626f6c 	cmnvs	r2, ip, ror #30
76f4e46c:	645f006c 	ldrbvs	r0, [pc], #-108	; 0x76f4e474
76f4e470:	69665f6c 	stmdbvs	r6!, {r2, r3, r5, r6, r8, r9, sl, fp, ip, lr}^
76f4e474:	645f646e 	ldrbvs	r6, [pc], #-1134	; 0x76f4e47c
76f4e478:	665f6f73 	usub16vs	r6, pc, r3	; <UNPREDICTABLE>
76f4e47c:	6f5f726f 	svcvs	0x005f726f
76f4e480:	63656a62 	cmnvs	r5, #401408	; 0x62000
76f4e484:	645f0074 	ldrbvs	r0, [pc], #-116	; 0x76f4e48c
76f4e488:	616d5f6c 	cmnvs	sp, ip, ror #30
76f4e48c:	735f656b 	cmpvc	pc, #448790528	; 0x1ac00000
76f4e490:	6b636174 	blvs	0x78826a68
76f4e494:	6578655f 	ldrbvs	r6, [r8, #-1375]!	; 0x55f
76f4e498:	61747563 	cmnvs	r4, r3, ror #10
76f4e49c:	00656c62 	rsbeq	r6, r5, r2, ror #24
76f4e4a0:	696c5f5f 	stmdbvs	ip!, {r0, r1, r2, r3, r4, r6, r8, r9, sl, fp, ip, lr}^
76f4e4a4:	735f6362 	cmpvc	pc, #-2013265919	; 0x88000001
76f4e4a8:	6b636174 	blvs	0x78826a80
76f4e4ac:	646e655f 	strbtvs	r6, [lr], #-1375	; 0x55f
76f4e4b0:	735f5f00 	cmpvc	pc, #0, 30
76f4e4b4:	6b636174 	blvs	0x78826a8c
76f4e4b8:	6b68635f 	blvs	0x7896723c
76f4e4bc:	6175675f 	cmnvs	r5, pc, asr r7
76f4e4c0:	5f006472 	svcpl	0x00006472
76f4e4c4:	62696c5f 	rsbvs	r6, r9, #24320	; 0x5f00
76f4e4c8:	656d5f63 	strbvs	r5, [sp, #-3939]!	; 0xf63
76f4e4cc:	696c616d 	stmdbvs	ip!, {r0, r2, r3, r5, r6, r8, sp, lr}^
76f4e4d0:	6d006e67 	stcvs	14, cr6, [r0, #-412]	; 0xfffffe64
76f4e4d4:	6f6c6c61 	svcvs	0x006c6c61
76f4e4d8:	645f0063 	ldrbvs	r0, [pc], #-99	; 0x76f4e4e0
76f4e4dc:	65645f6c 	strbvs	r5, [r4, #-3948]!	; 0xf6c
76f4e4e0:	6f6c6c61 	svcvs	0x006c6c61
76f4e4e4:	65746163 	ldrbvs	r6, [r4, #-355]!	; 0x163
76f4e4e8:	736c745f 	cmnvc	ip, #1593835520	; 0x5f000000
76f4e4ec:	6c5f5f00 	mrrcvs	15, 0, r5, pc, cr0	; <UNPREDICTABLE>
76f4e4f0:	5f636269 	svcpl	0x00636269
76f4e4f4:	62616e65 	rsbvs	r6, r1, #1616	; 0x650
76f4e4f8:	735f656c 	cmpvc	pc, #108, 10	; 0x1b000000
76f4e4fc:	72756365 	rsbsvc	r6, r5, #-1811939327	; 0x94000001
76f4e500:	5f5f0065 	svcpl	0x005f0065
76f4e504:	5f736c74 	svcpl	0x00736c74
76f4e508:	5f746567 	svcpl	0x00746567
76f4e50c:	72646461 	rsbvc	r6, r4, #1627389952	; 0x61000000
76f4e510:	6c645f00 	stclvs	15, cr5, [r4], #-0
76f4e514:	7465675f 	strbtvc	r6, [r5], #-1887	; 0x75f
76f4e518:	736c745f 	cmnvc	ip, #1593835520	; 0x5f000000
76f4e51c:	6174735f 	cmnvs	r4, pc, asr r3
76f4e520:	5f636974 	svcpl	0x00636974
76f4e524:	6f666e69 	svcvs	0x00666e69
76f4e528:	6c616300 	stclvs	3, cr6, [r1], #-0
76f4e52c:	00636f6c 	rsbeq	r6, r3, ip, ror #30
76f4e530:	5f6c645f 	svcpl	0x006c645f
76f4e534:	75626564 	strbvc	r6, [r2, #-1380]!	; 0x564
76f4e538:	74735f67 	ldrbtvc	r5, [r3], #-3943	; 0xf67
76f4e53c:	00657461 	rsbeq	r7, r5, r1, ror #8
76f4e540:	5f6c645f 	svcpl	0x006c645f
76f4e544:	76677261 	strbtvc	r7, [r7], -r1, ror #4
76f4e548:	6c645f00 	stclvs	15, cr5, [r4], #-0
76f4e54c:	6c6c615f 	stfvse	f6, [ip], #-380	; 0xfffffe84
76f4e550:	7461636f 	strbtvc	r6, [r1], #-879	; 0x36f
76f4e554:	6c745f65 	ldclvs	15, cr5, [r4], #-404	; 0xfffffe6c
76f4e558:	6e695f73 	mcrvs	15, 3, r5, cr9, cr3, {3}
76f4e55c:	5f007469 	svcpl	0x00007469
76f4e560:	646c7472 	strbtvs	r7, [ip], #-1138	; 0x472
76f4e564:	6f6c675f 	svcvs	0x006c675f
76f4e568:	5f6c6162 	svcpl	0x006c6162
76f4e56c:	72006f72 	andvc	r6, r0, #456	; 0x1c8
76f4e570:	6c6c6165 	stfvse	f6, [ip], #-404	; 0xfffffe6c
76f4e574:	5f00636f 	svcpl	0x0000636f
76f4e578:	745f6c64 	ldrbvc	r6, [pc], #-3172	; 0x76f4e580
76f4e57c:	735f736c 	cmpvc	pc, #108, 6	; 0xb0000001
76f4e580:	70757465 	rsbsvc	r7, r5, r5, ror #8
76f4e584:	6c645f00 	stclvs	15, cr5, [r4], #-0
76f4e588:	6c74725f 	lfmvs	f7, 2, [r4], #-380	; 0xfffffe84
76f4e58c:	69645f64 	stmdbvs	r4!, {r2, r5, r6, r8, r9, sl, fp, ip, lr}^
76f4e590:	7265735f 	rsbvc	r7, r5, #2080374785	; 0x7c000001
76f4e594:	6f666e69 	svcvs	0x00666e69
76f4e598:	6c645f00 	stclvs	15, cr5, [r4], #-0
76f4e59c:	6f636d5f 	svcvs	0x00636d5f
76f4e5a0:	00746e75 	rsbseq	r6, r4, r5, ror lr
76f4e5a4:	5f6c645f 	svcpl	0x006c645f
76f4e5a8:	6f6c6c61 	svcvs	0x006c6c61
76f4e5ac:	65746163 	ldrbvs	r6, [r4, #-355]!	; 0x163
76f4e5b0:	736c745f 	cmnvc	ip, #1593835520	; 0x5f000000
76f4e5b4:	705f5f00 	subsvc	r5, pc, r0, lsl #30
76f4e5b8:	746e696f 	strbtvc	r6, [lr], #-2415	; 0x96f
76f4e5bc:	635f7265 	cmpvs	pc, #1342177286	; 0x50000006
76f4e5c0:	675f6b68 	ldrbvs	r6, [pc, -r8, ror #22]
76f4e5c4:	64726175 	ldrbtvs	r6, [r2], #-373	; 0x175
76f4e5c8:	5f725f00 	svcpl	0x00725f00
76f4e5cc:	75626564 	strbvc	r6, [r2, #-1380]!	; 0x564
76f4e5d0:	72660067 	rsbvc	r0, r6, #103	; 0x67
76f4e5d4:	6c006565 	cfstr32vs	mvfx6, [r0], {101}	; 0x65
76f4e5d8:	696c2d64 	stmdbvs	ip!, {r2, r5, r6, r8, sl, fp, sp}^
76f4e5dc:	2d78756e 	cfldr64cs	mvdx7, [r8, #-440]!	; 0xfffffe48
76f4e5e0:	686d7261 	stmdavs	sp!, {r0, r5, r6, r9, ip, sp, lr}^
76f4e5e4:	6f732e66 	svcvs	0x00732e66
76f4e5e8:	4700332e 	strmi	r3, [r0, -lr, lsr #6]
76f4e5ec:	4342494c 	movtmi	r4, #10572	; 0x294c
76f4e5f0:	342e325f 	strtcc	r3, [lr], #-607	; 0x25f
76f4e5f4:	494c4700 	stmdbmi	ip, {r8, r9, sl, lr}^
76f4e5f8:	505f4342 	subspl	r4, pc, r2, asr #6
76f4e5fc:	41564952 	cmpmi	r6, r2, asr r9
76f4e600:	00004554 	andeq	r4, r0, r4, asr r5
76f4e604:	00000000 	andeq	r0, r0, r0
76f4e608:	00030000 	andeq	r0, r3, r0
76f4e60c:	00030003 	andeq	r0, r3, r3
76f4e610:	00020002 	andeq	r0, r2, r2
76f4e614:	00030002 	andeq	r0, r3, r2
76f4e618:	00020002 	andeq	r0, r2, r2
76f4e61c:	00030002 	andeq	r0, r3, r2
76f4e620:	00020003 	andeq	r0, r2, r3
76f4e624:	00020003 	andeq	r0, r2, r3
76f4e628:	00030003 	andeq	r0, r3, r3
76f4e62c:	00020003 	andeq	r0, r2, r3
76f4e630:	00020003 	andeq	r0, r2, r3
76f4e634:	00030003 	andeq	r0, r3, r3
76f4e638:	00030002 	andeq	r0, r3, r2
76f4e63c:	00000003 	andeq	r0, r0, r3
76f4e640:	00010001 	andeq	r0, r1, r1
76f4e644:	00010001 	andeq	r0, r1, r1
76f4e648:	00723903 	rsbseq	r3, r2, r3, lsl #18
76f4e64c:	00000014 	andeq	r0, r0, r4, lsl r0
76f4e650:	0000001c 	andeq	r0, r0, ip, lsl r0
76f4e654:	00000177 	andeq	r0, r0, r7, ror r1
76f4e658:	00000000 	andeq	r0, r0, r0
76f4e65c:	00000001 	andeq	r0, r0, r1
76f4e660:	00010002 	andeq	r0, r1, r2
76f4e664:	0d696914 	stcleq	9, cr6, [r9, #-80]!	; 0xffffffb0
76f4e668:	00000014 	andeq	r0, r0, r4, lsl r0
76f4e66c:	0000001c 	andeq	r0, r0, ip, lsl r0
76f4e670:	0000018b 	andeq	r0, r0, fp, lsl #3
76f4e674:	00000000 	andeq	r0, r0, r0
76f4e678:	00000001 	andeq	r0, r0, r1
76f4e67c:	00020003 	andeq	r0, r2, r3
76f4e680:	0963cf85 	stmdbeq	r3!, {r0, r2, r7, r8, r9, sl, fp, lr, pc}^
76f4e684:	00000014 	andeq	r0, r0, r4, lsl r0
76f4e688:	00000000 	andeq	r0, r0, r0
76f4e68c:	00000195 	muleq	r0, r5, r1
76f4e690:	00000008 	andeq	r0, r0, r8
76f4e694:	0000018b 	andeq	r0, r0, fp, lsl #3
76f4e698:	00000000 	andeq	r0, r0, r0
76f4e69c:	0002fee8 	andeq	pc, r2, r8, ror #29
76f4e6a0:	00000017 	andeq	r0, r0, r7, lsl r0
76f4e6a4:	0002feec 	andeq	pc, r2, ip, ror #29
76f4e6a8:	00000017 	andeq	r0, r0, r7, lsl r0
76f4e6ac:	0002fef0 	strdeq	pc, [r2], -r0
76f4e6b0:	00000017 	andeq	r0, r0, r7, lsl r0
76f4e6b4:	0002fef4 	strdeq	pc, [r2], -r4
76f4e6b8:	00000017 	andeq	r0, r0, r7, lsl r0
76f4e6bc:	0002fef8 	strdeq	pc, [r2], -r8
76f4e6c0:	00000017 	andeq	r0, r0, r7, lsl r0
76f4e6c4:	0002fefc 	strdeq	pc, [r2], -ip
76f4e6c8:	00000017 	andeq	r0, r0, r7, lsl r0
76f4e6cc:	0002ff00 	andeq	pc, r2, r0, lsl #30
76f4e6d0:	00000017 	andeq	r0, r0, r7, lsl r0
76f4e6d4:	0002ff04 	andeq	pc, r2, r4, lsl #30
76f4e6d8:	00000017 	andeq	r0, r0, r7, lsl r0
76f4e6dc:	0002ff08 	andeq	pc, r2, r8, lsl #30
76f4e6e0:	00000017 	andeq	r0, r0, r7, lsl r0
76f4e6e4:	0002ff0c 	andeq	pc, r2, ip, lsl #30
76f4e6e8:	00000017 	andeq	r0, r0, r7, lsl r0
76f4e6ec:	00030024 	andeq	r0, r3, r4, lsr #32
76f4e6f0:	00000017 	andeq	r0, r0, r7, lsl r0
76f4e6f4:	00030028 	andeq	r0, r3, r8, lsr #32
76f4e6f8:	00000017 	andeq	r0, r0, r7, lsl r0
76f4e6fc:	00030030 	andeq	r0, r3, r0, lsr r0
76f4e700:	00000017 	andeq	r0, r0, r7, lsl r0
76f4e704:	00030034 	andeq	r0, r3, r4, lsr r0
76f4e708:	00000017 	andeq	r0, r0, r7, lsl r0
76f4e70c:	00030038 	andeq	r0, r3, r8, lsr r0
76f4e710:	00000017 	andeq	r0, r0, r7, lsl r0
76f4e714:	0003003c 	andeq	r0, r3, ip, lsr r0
76f4e718:	00000017 	andeq	r0, r0, r7, lsl r0
76f4e71c:	00030040 	andeq	r0, r3, r0, asr #32
76f4e720:	00000017 	andeq	r0, r0, r7, lsl r0
76f4e724:	0003002c 	andeq	r0, r3, ip, lsr #32
76f4e728:	00001a15 	andeq	r1, r0, r5, lsl sl
76f4e72c:	00030044 	andeq	r0, r3, r4, asr #32
76f4e730:	00000a15 	andeq	r0, r0, r5, lsl sl
76f4e734:	00030048 	andeq	r0, r3, r8, asr #32
76f4e738:	00000715 	andeq	r0, r0, r5, lsl r7
76f4e73c:	0003000c 	andeq	r0, r3, ip
76f4e740:	00000c16 	andeq	r0, r0, r6, lsl ip
76f4e744:	00030010 	andeq	r0, r3, r0, lsl r0
76f4e748:	00001716 	andeq	r1, r0, r6, lsl r7
76f4e74c:	00030014 	andeq	r0, r3, r4, lsl r0
76f4e750:	00001516 	andeq	r1, r0, r6, lsl r5
76f4e754:	00030018 	andeq	r0, r3, r8, lsl r0
76f4e758:	00000f16 	andeq	r0, r0, r6, lsl pc
76f4e75c:	0003001c 	andeq	r0, r3, ip, lsl r0
76f4e760:	00000816 	andeq	r0, r0, r6, lsl r8
76f4e764:	00030020 	andeq	r0, r3, r0, lsr #32
76f4e768:	00000716 	andeq	r0, r0, r6, lsl r7
76f4e76c:	e52de004 	push	{lr}		; (str lr, [sp, #-4]!)
76f4e770:	e59fe004 	ldr	lr, [pc, #4]	; 0x76f4e77c
76f4e774:	e08fe00e 	add	lr, pc, lr
76f4e778:	e5bef008 	ldr	pc, [lr, #8]!
76f4e77c:	0002f884 	andeq	pc, r2, r4, lsl #17
76f4e780:	e28fc600 	add	ip, pc, #0, 12
76f4e784:	e28cca2f 	add	ip, ip, #192512	; 0x2f000
76f4e788:	e5bcf884 	ldr	pc, [ip, #2180]!	; 0x884
76f4e78c:	e28fc600 	add	ip, pc, #0, 12
76f4e790:	e28cca2f 	add	ip, ip, #192512	; 0x2f000
76f4e794:	e5bcf87c 	ldr	pc, [ip, #2172]!	; 0x87c
76f4e798:	e28fc600 	add	ip, pc, #0, 12
76f4e79c:	e28cca2f 	add	ip, ip, #192512	; 0x2f000
76f4e7a0:	e5bcf874 	ldr	pc, [ip, #2164]!	; 0x874
76f4e7a4:	e28fc600 	add	ip, pc, #0, 12
76f4e7a8:	e28cca2f 	add	ip, ip, #192512	; 0x2f000
76f4e7ac:	e5bcf86c 	ldr	pc, [ip, #2156]!	; 0x86c
76f4e7b0:	e28fc600 	add	ip, pc, #0, 12
76f4e7b4:	e28cca2f 	add	ip, ip, #192512	; 0x2f000
76f4e7b8:	e5bcf864 	ldr	pc, [ip, #2148]!	; 0x864
76f4e7bc:	e28fc600 	add	ip, pc, #0, 12
76f4e7c0:	e28cca2f 	add	ip, ip, #192512	; 0x2f000
76f4e7c4:	e5bcf85c 	ldr	pc, [ip, #2140]!	; 0x85c
	...
76f4e800:	e92d41f0 	push	{r4, r5, r6, r7, r8, lr}
76f4e804:	e24dd028 	sub	sp, sp, #40	; 0x28
76f4e808:	e59f5088 	ldr	r5, [pc, #136]	; 0x76f4e898
76f4e80c:	e28d3018 	add	r3, sp, #24
76f4e810:	e58d3000 	str	r3, [sp]
76f4e814:	e1a06000 	mov	r6, r0
76f4e818:	e59f307c 	ldr	r3, [pc, #124]	; 0x76f4e89c
76f4e81c:	e3a04000 	mov	r4, #0
76f4e820:	e58d0018 	str	r0, [sp, #24]
76f4e824:	e3a00301 	mov	r0, #67108864	; 0x4000000
76f4e828:	e08f5005 	add	r5, pc, r5
76f4e82c:	e1a08002 	mov	r8, r2
76f4e830:	e58d101c 	str	r1, [sp, #28]
76f4e834:	e28d200f 	add	r2, sp, #15
76f4e838:	e08f3003 	add	r3, pc, r3
76f4e83c:	e28d1014 	add	r1, sp, #20
76f4e840:	e58d0020 	str	r0, [sp, #32]
76f4e844:	e28d0010 	add	r0, sp, #16
76f4e848:	e5957004 	ldr	r7, [r5, #4]
76f4e84c:	e58d4014 	str	r4, [sp, #20]
76f4e850:	eb003e0f 	bl	0x76f5e094
76f4e854:	e59d3014 	ldr	r3, [sp, #20]
76f4e858:	e1530004 	cmp	r3, r4
76f4e85c:	0a000008 	beq	0x76f4e884
76f4e860:	e59f1038 	ldr	r1, [pc, #56]	; 0x76f4e8a0
76f4e864:	e3a00002 	mov	r0, #2
76f4e868:	e58d3000 	str	r3, [sp]
76f4e86c:	e1a02006 	mov	r2, r6
76f4e870:	e08f1001 	add	r1, pc, r1
76f4e874:	e1a03008 	mov	r3, r8
76f4e878:	eb004224 	bl	0x76f5f110
76f4e87c:	e1a00004 	mov	r0, r4
76f4e880:	ea000002 	b	0x76f4e890
76f4e884:	e5950004 	ldr	r0, [r5, #4]
76f4e888:	e0500007 	subs	r0, r0, r7
76f4e88c:	13a00001 	movne	r0, #1
76f4e890:	e28dd028 	add	sp, sp, #40	; 0x28
76f4e894:	e8bd81f0 	pop	{r4, r5, r6, r7, r8, pc}
76f4e898:	0002f820 	andeq	pc, r2, r0, lsr #16
76f4e89c:	000004e8 	andeq	r0, r0, r8, ror #9
76f4e8a0:	0001b680 	andeq	fp, r1, r0, lsl #13
76f4e8a4:	e59f3050 	ldr	r3, [pc, #80]	; 0x76f4e8fc
76f4e8a8:	e59fc050 	ldr	ip, [pc, #80]	; 0x76f4e900
76f4e8ac:	e08f3003 	add	r3, pc, r3
76f4e8b0:	e08fc00c 	add	ip, pc, ip
76f4e8b4:	e5932000 	ldr	r2, [r3]
76f4e8b8:	e59f0044 	ldr	r0, [pc, #68]	; 0x76f4e904
76f4e8bc:	e52de004 	push	{lr}		; (str lr, [sp, #-4]!)
76f4e8c0:	e24dd00c 	sub	sp, sp, #12
76f4e8c4:	e4921004 	ldr	r1, [r2], #4
76f4e8c8:	e3a0e000 	mov	lr, #0
76f4e8cc:	e79c0000 	ldr	r0, [ip, r0]
76f4e8d0:	e3c110ff 	bic	r1, r1, #255	; 0xff
76f4e8d4:	e5801000 	str	r1, [r0]
76f4e8d8:	e5920000 	ldr	r0, [r2]
76f4e8dc:	e59f2024 	ldr	r2, [pc, #36]	; 0x76f4e908
76f4e8e0:	e58d0004 	str	r0, [sp, #4]
76f4e8e4:	e08f2002 	add	r2, pc, r2
76f4e8e8:	e59d1004 	ldr	r1, [sp, #4]
76f4e8ec:	e583e000 	str	lr, [r3]
76f4e8f0:	e5821004 	str	r1, [r2, #4]
76f4e8f4:	e28dd00c 	add	sp, sp, #12
76f4e8f8:	e49df004 	pop	{pc}		; (ldr pc, [sp], #4)
76f4e8fc:	0002f68c 	andeq	pc, r2, ip, lsl #13
76f4e900:	0002f748 	andeq	pc, r2, r8, asr #14
76f4e904:	0000002c 	andeq	r0, r0, ip, lsr #32
76f4e908:	0002f3a4 	andeq	pc, r2, r4, lsr #7
76f4e90c:	e92d41f0 	push	{r4, r5, r6, r7, r8, lr}
76f4e910:	e59f4154 	ldr	r4, [pc, #340]	; 0x76f4ea6c
76f4e914:	e08f4004 	add	r4, pc, r4
76f4e918:	e594681c 	ldr	r6, [r4, #2076]	; 0x81c
76f4e91c:	e5945804 	ldr	r5, [r4, #2052]	; 0x804
76f4e920:	e3560000 	cmp	r6, #0
76f4e924:	e584580c 	str	r5, [r4, #2060]	; 0x80c
76f4e928:	1a000047 	bne	0x76f4ea4c
76f4e92c:	e2850040 	add	r0, r5, #64	; 0x40
76f4e930:	e3a01001 	mov	r1, #1
76f4e934:	e1a00180 	lsl	r0, r0, #3
76f4e938:	ebffff99 	bl	0x76f4e7a4
76f4e93c:	e594304c 	ldr	r3, [r4, #76]	; 0x4c
76f4e940:	e285203f 	add	r2, r5, #63	; 0x3f
76f4e944:	e5802000 	str	r2, [r0]
76f4e948:	e280c008 	add	ip, r0, #8
76f4e94c:	e5840808 	str	r0, [r4, #2056]	; 0x808
76f4e950:	e3530000 	cmp	r3, #0
76f4e954:	e5806004 	str	r6, [r0, #4]
76f4e958:	05942000 	ldreq	r2, [r4]
76f4e95c:	0a000007 	beq	0x76f4e980
76f4e960:	e59f3108 	ldr	r3, [pc, #264]	; 0x76f4ea70
76f4e964:	e3a02f96 	mov	r2, #600	; 0x258
76f4e968:	e59f1104 	ldr	r1, [pc, #260]	; 0x76f4ea74
76f4e96c:	e59f0104 	ldr	r0, [pc, #260]	; 0x76f4ea78
76f4e970:	e08f3003 	add	r3, pc, r3
76f4e974:	e08f1001 	add	r1, pc, r1
76f4e978:	e08f0000 	add	r0, pc, r0
76f4e97c:	eb005e24 	bl	0x76f66214
76f4e980:	e3520000 	cmp	r2, #0
76f4e984:	0a000006 	beq	0x76f4e9a4
76f4e988:	e5921230 	ldr	r1, [r2, #560]	; 0x230
76f4e98c:	e3510000 	cmp	r1, #0
76f4e990:	108c1183 	addne	r1, ip, r3, lsl #3
76f4e994:	12833001 	addne	r3, r3, #1
76f4e998:	15812004 	strne	r2, [r1, #4]
76f4e99c:	e592200c 	ldr	r2, [r2, #12]
76f4e9a0:	eafffff6 	b	0x76f4e980
76f4e9a4:	e1550003 	cmp	r5, r3
76f4e9a8:	0a000007 	beq	0x76f4e9cc
76f4e9ac:	e59f30c8 	ldr	r3, [pc, #200]	; 0x76f4ea7c
76f4e9b0:	e3a02f99 	mov	r2, #612	; 0x264
76f4e9b4:	e59f10c4 	ldr	r1, [pc, #196]	; 0x76f4ea80
76f4e9b8:	e59f00c4 	ldr	r0, [pc, #196]	; 0x76f4ea84
76f4e9bc:	e08f3003 	add	r3, pc, r3
76f4e9c0:	e08f1001 	add	r1, pc, r1
76f4e9c4:	e08f0000 	add	r0, pc, r0
76f4e9c8:	eb005e11 	bl	0x76f66214
76f4e9cc:	eb00494c 	bl	0x76f60f04
76f4e9d0:	eb0049fd 	bl	0x76f611cc
76f4e9d4:	e2503000 	subs	r3, r0, #0
76f4e9d8:	1a000007 	bne	0x76f4e9fc
76f4e9dc:	e59f40a4 	ldr	r4, [pc, #164]	; 0x76f4ea88
76f4e9e0:	e08f4004 	add	r4, pc, r4
76f4e9e4:	e1a01004 	mov	r1, r4
76f4e9e8:	e3a00002 	mov	r0, #2
76f4e9ec:	eb0041c7 	bl	0x76f5f110
76f4e9f0:	e3a0007f 	mov	r0, #127	; 0x7f
76f4e9f4:	eb0063b6 	bl	0x76f678d4
76f4e9f8:	eafffff9 	b	0x76f4e9e4
76f4e9fc:	e59f2088 	ldr	r2, [pc, #136]	; 0x76f4ea8c
76f4ea00:	e3a07005 	mov	r7, #5
76f4ea04:	e5931000 	ldr	r1, [r3]
76f4ea08:	e340700f 	movt	r7, #15
76f4ea0c:	e08f2002 	add	r2, pc, r2
76f4ea10:	e582181c 	str	r1, [r2, #2076]	; 0x81c
76f4ea14:	ef000000 	svc	0x00000000
76f4ea18:	e3700a01 	cmn	r0, #4096	; 0x1000
76f4ea1c:	9a00000c 	bls	0x76f4ea54
76f4ea20:	e59f5068 	ldr	r5, [pc, #104]	; 0x76f4ea90
76f4ea24:	e59f4068 	ldr	r4, [pc, #104]	; 0x76f4ea94
76f4ea28:	e08f5005 	add	r5, pc, r5
76f4ea2c:	e08f4004 	add	r4, pc, r4
76f4ea30:	e1a02005 	mov	r2, r5
76f4ea34:	e1a01004 	mov	r1, r4
76f4ea38:	e3a00002 	mov	r0, #2
76f4ea3c:	eb0041b3 	bl	0x76f5f110
76f4ea40:	e3a0007f 	mov	r0, #127	; 0x7f
76f4ea44:	eb0063a2 	bl	0x76f678d4
76f4ea48:	eafffff8 	b	0x76f4ea30
76f4ea4c:	e3a00000 	mov	r0, #0
76f4ea50:	e8bd81f0 	pop	{r4, r5, r6, r7, r8, pc}
76f4ea54:	e59f203c 	ldr	r2, [pc, #60]	; 0x76f4ea98
76f4ea58:	e3a01001 	mov	r1, #1
76f4ea5c:	e1a00003 	mov	r0, r3
76f4ea60:	e08f2002 	add	r2, pc, r2
76f4ea64:	e5c2100c 	strb	r1, [r2, #12]
76f4ea68:	e8bd81f0 	pop	{r4, r5, r6, r7, r8, pc}
76f4ea6c:	0002f734 	andeq	pc, r2, r4, lsr r7	; <UNPREDICTABLE>
76f4ea70:	0001c70c 	andeq	ip, r1, ip, lsl #14
76f4ea74:	0001b6e8 	andeq	fp, r1, r8, ror #13
76f4ea78:	0001b6ec 	andeq	fp, r1, ip, ror #13
76f4ea7c:	0001c6c0 	andeq	ip, r1, r0, asr #13
76f4ea80:	0001b69c 	muleq	r1, ip, r6
76f4ea84:	0001b6d0 	ldrdeq	fp, [r1], -r0
76f4ea88:	0001b6d0 	ldrdeq	fp, [r1], -r0
76f4ea8c:	0002f63c 	andeq	pc, r2, ip, lsr r6	; <UNPREDICTABLE>
76f4ea90:	0001b6c0 	andeq	fp, r1, r0, asr #13
76f4ea94:	0001b6cc 	andeq	fp, r1, ip, asr #13
76f4ea98:	0002fe18 	andeq	pc, r2, r8, lsl lr	; <UNPREDICTABLE>
76f4ea9c:	e59f1014 	ldr	r1, [pc, #20]	; 0x76f4eab8
76f4eaa0:	e3a00002 	mov	r0, #2
76f4eaa4:	e92d4010 	push	{r4, lr}
76f4eaa8:	e08f1001 	add	r1, pc, r1
76f4eaac:	eb004197 	bl	0x76f5f110
76f4eab0:	e3a0007f 	mov	r0, #127	; 0x7f
76f4eab4:	eb006386 	bl	0x76f678d4
76f4eab8:	0001dab8 			; <UNDEFINED> instruction: 0x0001dab8
76f4eabc:	00000000 	andeq	r0, r0, r0
76f4eac0:	e59fa094 	ldr	sl, [pc, #148]	; 0x76f4eb5c
76f4eac4:	e59f4094 	ldr	r4, [pc, #148]	; 0x76f4eb60
76f4eac8:	e1a0000d 	mov	r0, sp
76f4eacc:	eb001051 	bl	0x76f52c18
76f4ead0:	e28f6084 	add	r6, pc, #132	; 0x84
76f4ead4:	e08aa006 	add	sl, sl, r6
76f4ead8:	e79a4004 	ldr	r4, [sl, r4]
76f4eadc:	e1a06000 	mov	r6, r0
76f4eae0:	e59d1000 	ldr	r1, [sp]
76f4eae4:	e28d2004 	add	r2, sp, #4
76f4eae8:	e3540000 	cmp	r4, #0
76f4eaec:	1a000007 	bne	0x76f4eb10
76f4eaf0:	e0823101 	add	r3, r2, r1, lsl #2
76f4eaf4:	e2833004 	add	r3, r3, #4
76f4eaf8:	e59f006c 	ldr	r0, [pc, #108]	; 0x76f4eb6c
76f4eafc:	e79a0000 	ldr	r0, [sl, r0]
76f4eb00:	eb003dfa 	bl	0x76f5e2f0
76f4eb04:	e59f0058 	ldr	r0, [pc, #88]	; 0x76f4eb64
76f4eb08:	e08a0000 	add	r0, sl, r0
76f4eb0c:	e12fff16 	bx	r6
76f4eb10:	e0411004 	sub	r1, r1, r4
76f4eb14:	e58d1000 	str	r1, [sp]
76f4eb18:	e1a03002 	mov	r3, r2
76f4eb1c:	e0824104 	add	r4, r2, r4, lsl #2
76f4eb20:	e4945004 	ldr	r5, [r4], #4
76f4eb24:	e4835004 	str	r5, [r3], #4
76f4eb28:	e3550000 	cmp	r5, #0
76f4eb2c:	1afffffb 	bne	0x76f4eb20
76f4eb30:	e4945004 	ldr	r5, [r4], #4
76f4eb34:	e4835004 	str	r5, [r3], #4
76f4eb38:	e3550000 	cmp	r5, #0
76f4eb3c:	1afffffb 	bne	0x76f4eb30
76f4eb40:	e8b40021 	ldm	r4!, {r0, r5}
76f4eb44:	e8a30021 	stmia	r3!, {r0, r5}
76f4eb48:	e3500000 	cmp	r0, #0
76f4eb4c:	1afffffb 	bne	0x76f4eb40
76f4eb50:	e59f3010 	ldr	r3, [pc, #16]	; 0x76f4eb68
76f4eb54:	e78a2003 	str	r2, [sl, r3]
76f4eb58:	eaffffe4 	b	0x76f4eaf0
76f4eb5c:	0002f4a4 	andeq	pc, r2, r4, lsr #9
76f4eb60:	00000938 	andeq	r0, r0, r8, lsr r9
76f4eb64:	fffe06ac 			; <UNDEFINED> instruction: 0xfffe06ac
76f4eb68:	00000884 	andeq	r0, r0, r4, lsl #17
76f4eb6c:	00000050 	andeq	r0, r0, r0, asr r0
76f4eb70:	e59f0004 	ldr	r0, [pc, #4]	; 0x76f4eb7c
76f4eb74:	e08f0000 	add	r0, pc, r0
76f4eb78:	e12fff1e 	bx	lr
76f4eb7c:	0002fd04 	andeq	pc, r2, r4, lsl #26
76f4eb80:	e5903004 	ldr	r3, [r0, #4]
76f4eb84:	e2833001 	add	r3, r3, #1
76f4eb88:	e5803004 	str	r3, [r0, #4]
76f4eb8c:	e12fff1e 	bx	lr
76f4eb90:	e5903004 	ldr	r3, [r0, #4]
76f4eb94:	e2433001 	sub	r3, r3, #1
76f4eb98:	e5803004 	str	r3, [r0, #4]
76f4eb9c:	e12fff1e 	bx	lr
76f4eba0:	e92d4010 	push	{r4, lr}
76f4eba4:	e24dd018 	sub	sp, sp, #24
76f4eba8:	e5901004 	ldr	r1, [r0, #4]
76f4ebac:	e1a04000 	mov	r4, r0
76f4ebb0:	e5900000 	ldr	r0, [r0]
76f4ebb4:	e28d2018 	add	r2, sp, #24
76f4ebb8:	e3a0c000 	mov	ip, #0
76f4ebbc:	e3a0e002 	mov	lr, #2
76f4ebc0:	e522c004 	str	ip, [r2, #-4]!
76f4ebc4:	e2813e1d 	add	r3, r1, #464	; 0x1d0
76f4ebc8:	e584c008 	str	ip, [r4, #8]
76f4ebcc:	e58dc00c 	str	ip, [sp, #12]
76f4ebd0:	e58dc004 	str	ip, [sp, #4]
76f4ebd4:	e58dc000 	str	ip, [sp]
76f4ebd8:	e58de008 	str	lr, [sp, #8]
76f4ebdc:	eb0025aa 	bl	0x76f5828c
76f4ebe0:	e59d3014 	ldr	r3, [sp, #20]
76f4ebe4:	e3530000 	cmp	r3, #0
76f4ebe8:	0a000004 	beq	0x76f4ec00
76f4ebec:	e5933004 	ldr	r3, [r3, #4]
76f4ebf0:	e3500000 	cmp	r0, #0
76f4ebf4:	15900000 	ldrne	r0, [r0]
76f4ebf8:	e0830000 	add	r0, r3, r0
76f4ebfc:	e5840008 	str	r0, [r4, #8]
76f4ec00:	e28dd018 	add	sp, sp, #24
76f4ec04:	e8bd8010 	pop	{r4, pc}
76f4ec08:	e59f2058 	ldr	r2, [pc, #88]	; 0x76f4ec68
76f4ec0c:	e3e03000 	mvn	r3, #0
76f4ec10:	e92d4010 	push	{r4, lr}
76f4ec14:	e1a04000 	mov	r4, r0
76f4ec18:	e08f2002 	add	r2, pc, r2
76f4ec1c:	e24dd010 	sub	sp, sp, #16
76f4ec20:	e59f0044 	ldr	r0, [pc, #68]	; 0x76f4ec6c
76f4ec24:	e3a01363 	mov	r1, #-1946157055	; 0x8c000001
76f4ec28:	e59fc040 	ldr	ip, [pc, #64]	; 0x76f4ec70
76f4ec2c:	e7920000 	ldr	r0, [r2, r0]
76f4ec30:	e59f203c 	ldr	r2, [pc, #60]	; 0x76f4ec74
76f4ec34:	e08fc00c 	add	ip, pc, ip
76f4ec38:	e08f2002 	add	r2, pc, r2
76f4ec3c:	e590e000 	ldr	lr, [r0]
76f4ec40:	e59cc004 	ldr	ip, [ip, #4]
76f4ec44:	e5922000 	ldr	r2, [r2]
76f4ec48:	e5940000 	ldr	r0, [r4]
76f4ec4c:	e88d5004 	stm	sp, {r2, ip, lr}
76f4ec50:	e59f2020 	ldr	r2, [pc, #32]	; 0x76f4ec78
76f4ec54:	e08f2002 	add	r2, pc, r2
76f4ec58:	eb004db8 	bl	0x76f62340
76f4ec5c:	e5840004 	str	r0, [r4, #4]
76f4ec60:	e28dd010 	add	sp, sp, #16
76f4ec64:	e8bd8010 	pop	{r4, pc}
76f4ec68:	0002f3e0 	andeq	pc, r2, r0, ror #7
76f4ec6c:	00000030 	andeq	r0, r0, r0, lsr r0
76f4ec70:	0002fc44 	andeq	pc, r2, r4, asr #24
76f4ec74:	0002f050 	andeq	pc, r2, r0, asr r0	; <UNPREDICTABLE>
76f4ec78:	00000454 	andeq	r0, r0, r4, asr r4
76f4ec7c:	e1a03001 	mov	r3, r1
76f4ec80:	e5d11000 	ldrb	r1, [r1]
76f4ec84:	e3510000 	cmp	r1, #0
76f4ec88:	1a000005 	bne	0x76f4eca4
76f4ec8c:	e59f302c 	ldr	r3, [pc, #44]	; 0x76f4ecc0
76f4ec90:	e08f3003 	add	r3, pc, r3
76f4ec94:	e5933004 	ldr	r3, [r3, #4]
76f4ec98:	e5933000 	ldr	r3, [r3]
76f4ec9c:	e3530000 	cmp	r3, #0
76f4eca0:	0a000003 	beq	0x76f4ecb4
76f4eca4:	e59f1018 	ldr	r1, [pc, #24]	; 0x76f4ecc4
76f4eca8:	e3a00002 	mov	r0, #2
76f4ecac:	e08f1001 	add	r1, pc, r1
76f4ecb0:	ea004116 	b	0x76f5f110
76f4ecb4:	e59f300c 	ldr	r3, [pc, #12]	; 0x76f4ecc8
76f4ecb8:	e08f3003 	add	r3, pc, r3
76f4ecbc:	eafffff8 	b	0x76f4eca4
76f4ecc0:	0002fbe8 	andeq	pc, r2, r8, ror #23
76f4ecc4:	0001b22c 	andeq	fp, r1, ip, lsr #4
76f4ecc8:	0001b208 	andeq	fp, r1, r8, lsl #4
76f4eccc:	e59f0048 	ldr	r0, [pc, #72]	; 0x76f4ed1c
76f4ecd0:	e1a03001 	mov	r3, r1
76f4ecd4:	e52de004 	push	{lr}		; (str lr, [sp, #-4]!)
76f4ecd8:	e24dd00c 	sub	sp, sp, #12
76f4ecdc:	e08f0000 	add	r0, pc, r0
76f4ece0:	e5901004 	ldr	r1, [r0, #4]
76f4ece4:	e5910000 	ldr	r0, [r1]
76f4ece8:	e3500000 	cmp	r0, #0
76f4ecec:	0a000007 	beq	0x76f4ed10
76f4ecf0:	e59f1028 	ldr	r1, [pc, #40]	; 0x76f4ed20
76f4ecf4:	e58d2000 	str	r2, [sp]
76f4ecf8:	e1a02000 	mov	r2, r0
76f4ecfc:	e08f1001 	add	r1, pc, r1
76f4ed00:	e3a00002 	mov	r0, #2
76f4ed04:	eb004101 	bl	0x76f5f110
76f4ed08:	e28dd00c 	add	sp, sp, #12
76f4ed0c:	e49df004 	pop	{pc}		; (ldr pc, [sp], #4)
76f4ed10:	e59f000c 	ldr	r0, [pc, #12]	; 0x76f4ed24
76f4ed14:	e08f0000 	add	r0, pc, r0
76f4ed18:	eafffff4 	b	0x76f4ecf0
76f4ed1c:	0002fb9c 	muleq	r2, ip, fp
76f4ed20:	0001b1e8 	andeq	fp, r1, r8, ror #3
76f4ed24:	0001b1ac 	andeq	fp, r1, ip, lsr #3
76f4ed28:	e92d4010 	push	{r4, lr}
76f4ed2c:	e24dd008 	sub	sp, sp, #8
76f4ed30:	e3a03000 	mov	r3, #0
76f4ed34:	e1a04000 	mov	r4, r0
76f4ed38:	e58d3004 	str	r3, [sp, #4]
76f4ed3c:	e5902008 	ldr	r2, [r0, #8]
76f4ed40:	e5901000 	ldr	r1, [r0]
76f4ed44:	e5900004 	ldr	r0, [r0, #4]
76f4ed48:	e58d2000 	str	r2, [sp]
76f4ed4c:	e292220e 	adds	r2, r2, #-536870912	; 0xe0000000
76f4ed50:	13a02001 	movne	r2, #1
76f4ed54:	eb001ec7 	bl	0x76f56878
76f4ed58:	e584000c 	str	r0, [r4, #12]
76f4ed5c:	e28dd008 	add	sp, sp, #8
76f4ed60:	e8bd8010 	pop	{r4, pc}
76f4ed64:	e92d41f0 	push	{r4, r5, r6, r7, r8, lr}
76f4ed68:	e24dd008 	sub	sp, sp, #8
76f4ed6c:	e59f6090 	ldr	r6, [pc, #144]	; 0x76f4ee04
76f4ed70:	e28d5008 	add	r5, sp, #8
76f4ed74:	e59f808c 	ldr	r8, [pc, #140]	; 0x76f4ee08
76f4ed78:	e59f708c 	ldr	r7, [pc, #140]	; 0x76f4ee0c
76f4ed7c:	e08f6006 	add	r6, pc, r6
76f4ed80:	e08f8008 	add	r8, pc, r8
76f4ed84:	e08f7007 	add	r7, pc, r7
76f4ed88:	e5250004 	str	r0, [r5, #-4]!
76f4ed8c:	e1a01006 	mov	r1, r6
76f4ed90:	e1a00005 	mov	r0, r5
76f4ed94:	eb005dfd 	bl	0x76f66590
76f4ed98:	e2504000 	subs	r4, r0, #0
76f4ed9c:	0a000011 	beq	0x76f4ede8
76f4eda0:	e5d43000 	ldrb	r3, [r4]
76f4eda4:	e3530000 	cmp	r3, #0
76f4eda8:	0afffff7 	beq	0x76f4ed8c
76f4edac:	e5983000 	ldr	r3, [r8]
76f4edb0:	e3530000 	cmp	r3, #0
76f4edb4:	1a00000d 	bne	0x76f4edf0
76f4edb8:	e3a00008 	mov	r0, #8
76f4edbc:	ebfffe72 	bl	0x76f4e78c
76f4edc0:	e5973008 	ldr	r3, [r7, #8]
76f4edc4:	e5804000 	str	r4, [r0]
76f4edc8:	e3530000 	cmp	r3, #0
76f4edcc:	05800004 	streq	r0, [r0, #4]
76f4edd0:	15932004 	ldrne	r2, [r3, #4]
76f4edd4:	05870008 	streq	r0, [r7, #8]
76f4edd8:	15802004 	strne	r2, [r0, #4]
76f4eddc:	15870008 	strne	r0, [r7, #8]
76f4ede0:	15830004 	strne	r0, [r3, #4]
76f4ede4:	eaffffe8 	b	0x76f4ed8c
76f4ede8:	e28dd008 	add	sp, sp, #8
76f4edec:	e8bd81f0 	pop	{r4, r5, r6, r7, r8, pc}
76f4edf0:	e3a0102f 	mov	r1, #47	; 0x2f
76f4edf4:	eb00636d 	bl	0x76f67bb0
76f4edf8:	e3500000 	cmp	r0, #0
76f4edfc:	1affffe2 	bne	0x76f4ed8c
76f4ee00:	eaffffec 	b	0x76f4edb8
76f4ee04:	0001b1bc 			; <UNDEFINED> instruction: 0x0001b1bc
76f4ee08:	0002f1b4 			; <UNDEFINED> instruction: 0x0002f1b4
76f4ee0c:	0002faf4 	strdeq	pc, [r2], -r4
76f4ee10:	e8900005 	ldm	r0, {r0, r2}
76f4ee14:	e3a03000 	mov	r3, #0
76f4ee18:	e59011cc 	ldr	r1, [r0, #460]	; 0x1cc
76f4ee1c:	ea002baf 	b	0x76f59ce0
76f4ee20:	e59f325c 	ldr	r3, [pc, #604]	; 0x76f4f084
76f4ee24:	e92d4ff0 	push	{r4, r5, r6, r7, r8, r9, sl, fp, lr}
76f4ee28:	e28db020 	add	fp, sp, #32
76f4ee2c:	e08f3003 	add	r3, pc, r3
76f4ee30:	e24dd01c 	sub	sp, sp, #28
76f4ee34:	e50b3028 	str	r3, [fp, #-40]	; 0x28
76f4ee38:	e59f3248 	ldr	r3, [pc, #584]	; 0x76f4f088
76f4ee3c:	e1a07000 	mov	r7, r0
76f4ee40:	e59f8244 	ldr	r8, [pc, #580]	; 0x76f4f08c
76f4ee44:	e08f3003 	add	r3, pc, r3
76f4ee48:	e59fa240 	ldr	sl, [pc, #576]	; 0x76f4f090
76f4ee4c:	e50b302c 	str	r3, [fp, #-44]	; 0x2c
76f4ee50:	e59f323c 	ldr	r3, [pc, #572]	; 0x76f4f094
76f4ee54:	e08f8008 	add	r8, pc, r8
76f4ee58:	e08fa00a 	add	sl, pc, sl
76f4ee5c:	e08f3003 	add	r3, pc, r3
76f4ee60:	e50b3030 	str	r3, [fp, #-48]	; 0x30
76f4ee64:	e5d73000 	ldrb	r3, [r7]
76f4ee68:	e3530000 	cmp	r3, #0
76f4ee6c:	0a000040 	beq	0x76f4ef74
76f4ee70:	e3530020 	cmp	r3, #32
76f4ee74:	1353002c 	cmpne	r3, #44	; 0x2c
76f4ee78:	13a02001 	movne	r2, #1
76f4ee7c:	03a02000 	moveq	r2, #0
76f4ee80:	e353003a 	cmp	r3, #58	; 0x3a
76f4ee84:	03a03000 	moveq	r3, #0
76f4ee88:	12023001 	andne	r3, r2, #1
76f4ee8c:	e3530000 	cmp	r3, #0
76f4ee90:	02877001 	addeq	r7, r7, #1
76f4ee94:	0afffff2 	beq	0x76f4ee64
76f4ee98:	e5d72001 	ldrb	r2, [r7, #1]
76f4ee9c:	e352003a 	cmp	r2, #58	; 0x3a
76f4eea0:	1352002c 	cmpne	r2, #44	; 0x2c
76f4eea4:	13a03001 	movne	r3, #1
76f4eea8:	03a03000 	moveq	r3, #0
76f4eeac:	e31200df 	tst	r2, #223	; 0xdf
76f4eeb0:	03a03000 	moveq	r3, #0
76f4eeb4:	12033001 	andne	r3, r3, #1
76f4eeb8:	e3530000 	cmp	r3, #0
76f4eebc:	0a00006d 	beq	0x76f4f078
76f4eec0:	e2871002 	add	r1, r7, #2
76f4eec4:	e3a04001 	mov	r4, #1
76f4eec8:	e1a05001 	mov	r5, r1
76f4eecc:	e2844001 	add	r4, r4, #1
76f4eed0:	e4d12001 	ldrb	r2, [r1], #1
76f4eed4:	e352002c 	cmp	r2, #44	; 0x2c
76f4eed8:	1352003a 	cmpne	r2, #58	; 0x3a
76f4eedc:	13a03001 	movne	r3, #1
76f4eee0:	03a03000 	moveq	r3, #0
76f4eee4:	e31200df 	tst	r2, #223	; 0xdf
76f4eee8:	03a03000 	moveq	r3, #0
76f4eeec:	12033001 	andne	r3, r3, #1
76f4eef0:	e3530000 	cmp	r3, #0
76f4eef4:	1afffff3 	bne	0x76f4eec8
76f4eef8:	e51b3028 	ldr	r3, [fp, #-40]	; 0x28
76f4eefc:	e3a02004 	mov	r2, #4
76f4ef00:	e3a09000 	mov	r9, #0
76f4ef04:	e2836001 	add	r6, r3, #1
76f4ef08:	ea000004 	b	0x76f4ef20
76f4ef0c:	e2899001 	add	r9, r9, #1
76f4ef10:	e2866036 	add	r6, r6, #54	; 0x36
76f4ef14:	e359000b 	cmp	r9, #11
76f4ef18:	0a00001e 	beq	0x76f4ef98
76f4ef1c:	e5562001 	ldrb	r2, [r6, #-1]
76f4ef20:	e1520004 	cmp	r2, r4
76f4ef24:	1afffff8 	bne	0x76f4ef0c
76f4ef28:	e1a01006 	mov	r1, r6
76f4ef2c:	e1a00007 	mov	r0, r7
76f4ef30:	eb006561 	bl	0x76f684bc
76f4ef34:	e3500000 	cmp	r0, #0
76f4ef38:	1afffff3 	bne	0x76f4ef0c
76f4ef3c:	e51b102c 	ldr	r1, [fp, #-44]	; 0x2c
76f4ef40:	e3a03036 	mov	r3, #54	; 0x36
76f4ef44:	e59a2000 	ldr	r2, [sl]
76f4ef48:	e1a07005 	mov	r7, r5
76f4ef4c:	e0291993 	mla	r9, r3, r9, r1
76f4ef50:	e51b0030 	ldr	r0, [fp, #-48]	; 0x30
76f4ef54:	e3a01001 	mov	r1, #1
76f4ef58:	e1d933b4 	ldrh	r3, [r9, #52]	; 0x34
76f4ef5c:	e5801008 	str	r1, [r0, #8]
76f4ef60:	e1823003 	orr	r3, r2, r3
76f4ef64:	e58a3000 	str	r3, [sl]
76f4ef68:	e5d73000 	ldrb	r3, [r7]
76f4ef6c:	e3530000 	cmp	r3, #0
76f4ef70:	1affffbe 	bne	0x76f4ee70
76f4ef74:	e59f111c 	ldr	r1, [pc, #284]	; 0x76f4f098
76f4ef78:	e08f1001 	add	r1, pc, r1
76f4ef7c:	e5912000 	ldr	r2, [r1]
76f4ef80:	e3120c01 	tst	r2, #256	; 0x100
76f4ef84:	1581302c 	strne	r3, [r1, #44]	; 0x2c
76f4ef88:	e3120b01 	tst	r2, #1024	; 0x400
76f4ef8c:	1a000015 	bne	0x76f4efe8
76f4ef90:	e24bd020 	sub	sp, fp, #32
76f4ef94:	e8bd8ff0 	pop	{r4, r5, r6, r7, r8, r9, sl, fp, pc}
76f4ef98:	e1a01004 	mov	r1, r4
76f4ef9c:	e1a00007 	mov	r0, r7
76f4efa0:	eb0064dd 	bl	0x76f6831c
76f4efa4:	e280300f 	add	r3, r0, #15
76f4efa8:	e3a0c000 	mov	ip, #0
76f4efac:	e3c33007 	bic	r3, r3, #7
76f4efb0:	e1a01007 	mov	r1, r7
76f4efb4:	e04dd003 	sub	sp, sp, r3
76f4efb8:	e1a02000 	mov	r2, r0
76f4efbc:	e28d300f 	add	r3, sp, #15
76f4efc0:	e1a07005 	mov	r7, r5
76f4efc4:	e1a031a3 	lsr	r3, r3, #3
76f4efc8:	e7c0c183 	strb	ip, [r0, r3, lsl #3]
76f4efcc:	e1a00183 	lsl	r0, r3, #3
76f4efd0:	eb00675a 	bl	0x76f68d40
76f4efd4:	e1a02000 	mov	r2, r0
76f4efd8:	e1a01008 	mov	r1, r8
76f4efdc:	e3a00002 	mov	r0, #2
76f4efe0:	eb00404a 	bl	0x76f5f110
76f4efe4:	eaffff9e 	b	0x76f4ee64
76f4efe8:	e59f40ac 	ldr	r4, [pc, #172]	; 0x76f4f09c
76f4efec:	e3a00001 	mov	r0, #1
76f4eff0:	e59f10a8 	ldr	r1, [pc, #168]	; 0x76f4f0a0
76f4eff4:	e08f4004 	add	r4, pc, r4
76f4eff8:	e59f70a4 	ldr	r7, [pc, #164]	; 0x76f4f0a4
76f4effc:	e2845e25 	add	r5, r4, #592	; 0x250

Disassembly of section load13:

7efd5000 <load13>:
7efd5000:	5cfebafa 	vldmiapl	lr!, {s23-s272}
7efd5004:	bf7defe5 	svclt	0x007defe5
7efd5008:	b9e6cff7 	stmiblt	r6!, {r0, r1, r2, r4, r5, r6, r7, r8, r9, sl, fp, lr, pc}^
7efd500c:	bfffbfff 	svclt	0x00ffbfff
7efd5010:	79f9f8eb 	ldmibvc	r9!, {r0, r1, r3, r5, r6, r7, fp, ip, sp, lr, pc}^
7efd5014:	ee5ee13d 	mrc	1, 2, lr, cr14, cr13, {1}
7efd5018:	fb7fff7b 	blx	0x80fd4e0e
7efd501c:	f7bb5777 			; <UNDEFINED> instruction: 0xf7bb5777
7efd5020:	3feae2fe 	svccc	0x00eae2fe
7efd5024:	c1645fd7 	ldrdgt	r5, [r4, #-247]!	; 0xffffff09
7efd5028:	abbbaffa 	blge	0x7dec1018
7efd502c:	cdf4977d 	ldclgt	7, cr9, [r4, #500]!	; 0x1f4
7efd5030:	baabaaf8 	blt	0x7dabfc18
7efd5034:	573f9dfd 			; <UNDEFINED> instruction: 0x573f9dfd
7efd5038:	ba3ba6b2 	blt	0x7febeb08
7efd503c:	df977f79 	svcle	0x00977f79
7efd5040:	7fb7efff 	svcvc	0x00b7efff
7efd5044:	d75d75df 	smmlsle	sp, pc, r5, r7	; <UNPREDICTABLE>
7efd5048:	e3eaba2f 	mvn	fp, #192512	; 0x2f000
7efd504c:	7d49fd97 	stclvc	13, cr15, [r9, #-604]	; 0xfffffda4
7efd5050:	e2af6eea 	adc	r6, pc, #3744	; 0xea0
7efd5054:	7fef53e5 	svcvc	0x00ef53e5
7efd5058:	afbbe7ea 	svcge	0x00bbe7ea
7efd505c:	df79eddc 	svcle	0x0079eddc
7efd5060:	2ebcaa8f 	cdpcs	10, 11, cr10, cr12, cr15, {4}
7efd5064:	53dff55d 	bicspl	pc, pc, #390070272	; 0x17400000
7efd5068:	87bb2faa 	ldrhi	r2, [fp, sl, lsr #31]!
7efd506c:	6d761edd 	ldclvs	14, cr1, [r6, #-884]!	; 0xfffffc8c
7efd5070:	fefe26ff 	mrc2	6, 7, r2, cr14, cr15, {7}
7efd5074:	957f06ff 	ldrbls	r0, [pc, #-1791]!	; 0x7efd497d
7efd5078:	abbfa2be 	blge	0x7dfbdb78
7efd507c:	f57d7ff7 			; <UNDEFINED> instruction: 0xf57d7ff7
7efd5080:	beeafefb 	mcrlt	14, 7, pc, cr10, cr11, {7}	; <UNPREDICTABLE>
7efd5084:	df4d75e5 	svcle	0x004d75e5
7efd5088:	eebfeeee 	cdp	14, 11, cr14, cr15, cr14, {7}
7efd508c:	d717d7d5 			; <UNDEFINED> instruction: 0xd717d7d5
7efd5090:	aeebff88 	cdpge	15, 14, cr15, cr11, cr8, {4}
7efd5094:	f15d3d57 			; <UNDEFINED> instruction: 0xf15d3d57
7efd5098:	c76e890f 	strbgt	r8, [lr, -pc, lsl #18]!
7efd509c:	df73dd75 	svcle	0x0073dd75
7efd50a0:	bafaafff 	blt	0x7ee810a4
7efd50a4:	cc555de5 	mrrcgt	13, 14, r5, r5, cr5	; <UNPREDICTABLE>
7efd50a8:	ee5baaa7 	vnmls.f32	s21, s23, s15
7efd50ac:	755db7d6 	ldrbvc	fp, [sp, #-2006]	; 0x7d6
7efd50b0:	ebeb28fb 	bl	0x7ea9f4a4
7efd50b4:	cf7f77cf 	svcgt	0x007f77cf
7efd50b8:	2eae6bbb 	vdupcs.16	q15, r6
7efd50bc:	ed7d7dd9 	ldcl	13, cr7, [sp, #-868]!	; 0xfffffc9c
7efd50c0:	ffebaf7f 			; <UNDEFINED> instruction: 0xffebaf7f
7efd50c4:	fddff75f 	ldc2l	7, cr15, [pc, #380]	; 0x7efd5248
7efd50c8:	ffebdefe 			; <UNDEFINED> instruction: 0xffebdefe
7efd50cc:	7fbf97e7 	svcvc	0x00bf97e7
7efd50d0:	efeb82ee 	svc	0x00eb82ee
7efd50d4:	fe5d55d5 	mrc2	5, 2, r5, cr13, cr5, {6}
7efd50d8:	effaabbb 	svc	0x00faabbb
7efd50dc:	757f7ff5 	ldrbvc	r7, [pc, #-4085]!	; 0x7efd40ef
7efd50e0:	fbeffffa 	blx	0x7ebd50d2
7efd50e4:	556ff5f5 	strbpl	pc, [pc, #-1525]!	; 0x7efd4af7	; <UNPREDICTABLE>
7efd50e8:	fcabb8b2 	stc2	8, cr11, [fp], #712	; 0x2c8
7efd50ec:	75f753dd 	ldrbvc	r5, [r7, #989]!	; 0x3dd
7efd50f0:	f2dfef8a 			; <UNDEFINED> instruction: 0xf2dfef8a
7efd50f4:	63f47d7d 	mvnsvs	r7, #8000	; 0x1f40
7efd50f8:	ae6ed93a 	mcrge	9, 3, sp, cr14, cr10, {1}
7efd50fc:	7df5fffd 	ldclvc	15, cr15, [r5, #1012]!	; 0x3f4
7efd5100:	faed1bba 	blx	0x7eb1bff0
7efd5104:	577fd587 	ldrbpl	sp, [pc, -r7, lsl #11]!
7efd5108:	ebfbaceb 	bl	0x7eec04bc
7efd510c:	fffdf69d 			; <UNDEFINED> instruction: 0xfffdf69d
7efd5110:	b2eefaff 	rsclt	pc, lr, #1044480	; 0xff000
7efd5114:	974715d5 			; <UNDEFINED> instruction: 0x974715d5
7efd5118:	aaaabaeb 	bge	0x7da83ccc
7efd511c:	c459f1f5 	ldrbgt	pc, [r9], #-501	; 0x1f5	; <UNPREDICTABLE>
7efd5120:	bfefbf3b 	svclt	0x00efbf3b
7efd5124:	c75fe5ff 	smmlsrgt	pc, pc, r5, lr	; <UNPREDICTABLE>
7efd5128:	bdeae2ae 	sfmlt	f6, 3, [sl, #696]!	; 0x2b8
7efd512c:	7d7dfbfe 	vldmdbvc	sp!, {d31-<overflow reg d93>}
7efd5130:	eeff77bc 	mrc	7, 7, r7, cr15, cr12, {5}
7efd5134:	74f1b75b 	ldrbtvc	fp, [r1], #1883	; 0x75b
7efd5138:	aeffafba 	mrcge	15, 7, sl, cr15, cr10, {5}
7efd513c:	7cd5575d 	ldclvc	7, cr5, [r5], {93}	; 0x5d
7efd5140:	e8f6ef7a 	ldm	r6!, {r1, r3, r4, r5, r6, r8, r9, sl, fp, sp, lr, pc}^
7efd5144:	555f5e4d 	ldrbpl	r5, [pc, #-3661]	; 0x7efd42ff
7efd5148:	fffaee8e 			; <UNDEFINED> instruction: 0xfffaee8e
7efd514c:	571ddd5e 			; <UNDEFINED> instruction: 0x571ddd5e
7efd5150:	fabceebb 	blx	0x7df10c44
7efd5154:	6f577f7f 	svcvs	0x00577f7f
7efd5158:	a2beab3e 	adcsge	sl, lr, #63488	; 0xf800
7efd515c:	6ddf65f4 	cfldr64vs	mvdx6, [pc, #976]	; 0x7efd5534
7efd5160:	7afbaaba 	bvc	0x7eebfc50
7efd5164:	57f7fbdd 	ubfxpl	pc, sp, #23, #24
7efd5168:	ecfab8aa 	ldcl	8, cr11, [sl], #680	; 0x2a8
7efd516c:	f5775d57 			; <UNDEFINED> instruction: 0xf5775d57
7efd5170:	feeae6fa 	mcr2	6, 7, lr, cr10, cr10, {7}
7efd5174:	f75dbd8d 			; <UNDEFINED> instruction: 0xf75dbd8d
7efd5178:	aaafbea8 	bge	0x7dbc4c20
7efd517c:	dbdfd71d 	blle	0x7e7cadf8
7efd5180:	3efeabea 	vcvtcc.s32.f64	d26, d26, #11
7efd5184:	7ff76ff5 	svcvc	0x00f76ff5
7efd5188:	baeaba2e 	blt	0x7ea83a48
7efd518c:	df6d7fff 	svcle	0x006d7fff
7efd5190:	f7fa4eb6 			; <UNDEFINED> instruction: 0xf7fa4eb6
7efd5194:	57fc7d55 	ubfxpl	r7, r5, #26, #29
7efd5198:	fafadbae 	blx	0x7ee8c058
7efd519c:	f575b7bf 			; <UNDEFINED> instruction: 0xf575b7bf
7efd51a0:	effbbfbf 	svc	0x00fbbfbf
7efd51a4:	fdb7f3b5 	ldc2	3, cr15, [r7, #724]!	; 0x2d4
7efd51a8:	edbebaba 	ldc	10, cr11, [lr, #744]!	; 0x2e8
7efd51ac:	75d7f615 	ldrbvc	pc, [r7, #1557]	; 0x615	; <UNPREDICTABLE>
7efd51b0:	aaeebefb 	bge	0x7eb84da4
7efd51b4:	df774f55 	svcle	0x00774f55
7efd51b8:	bab6bafe 	blt	0x7dd83db8
7efd51bc:	5f354575 	svcpl	0x00354575
7efd51c0:	a9fceabf 	ldmibge	ip!, {r0, r1, r2, r3, r4, r5, r7, r9, fp, sp, lr, pc}^
7efd51c4:	5fd5d7ef 	svcpl	0x00d5d7ef
7efd51c8:	acaf2efa 	stcge	14, cr2, [pc], #1000	; 0x7efd55b8
7efd51cc:	febf7f7b 	mrc2	15, 5, r7, cr15, cr11, {3}
7efd51d0:	a9aaf6fa 	stmibge	sl!, {r1, r3, r4, r5, r6, r7, r9, sl, ip, sp, lr, pc}
7efd51d4:	61f75555 	mvnsvs	r5, r5, asr r5
7efd51d8:	eefebaeb 	vcvt.s32.f32	s23, s23, #9
7efd51dc:	5f2f5bfb 	svcpl	0x002f5bfb
7efd51e0:	feaebdea 	cdp2	13, 10, cr11, cr14, cr10, {7}
7efd51e4:	decf7c7d 	mcrle	12, 6, r7, cr15, cr13, {3}
7efd51e8:	ea7eba8a 	b	0x80f83c18
7efd51ec:	ffffffdf 			; <UNDEFINED> instruction: 0xffffffdf
7efd51f0:	fabae9bb 	blx	0x7de8f8e4
7efd51f4:	d5f65555 	ldrble	r5, [r6, #1365]!	; 0x555
7efd51f8:	edfaf2ef 	lfm	f7, 3, [sl, #956]!	; 0x3bc
7efd51fc:	cdf17435 	cfldrdgt	mvd7, [r1, #212]!	; 0xd4
7efd5200:	fabf3f8f 	blx	0x7dfa5044
7efd5204:	7ffffdfd 	svcvc	0x00fffdfd
7efd5208:	cefbeeee 	cdpgt	14, 15, cr14, cr11, cr14, {7}
7efd520c:	d355775d 	cmple	r5, #24379392	; 0x1740000
7efd5210:	afaaefbe 	svcge	0x00aaefbe
7efd5214:	57f7557f 			; <UNDEFINED> instruction: 0x57f7557f
7efd5218:	af4a7aea 	svcge	0x004a7aea
7efd521c:	57ff5557 	ubfxpl	r5, r7, #10, #32
7efd5220:	fbaaaaae 	blx	0x7da7fce2
7efd5224:	eddff755 	ldcl	7, cr15, [pc, #340]	; 0x7efd5380
7efd5228:	efeaefae 	svc	0x00eaefae
7efd522c:	57f5fd77 			; <UNDEFINED> instruction: 0x57f5fd77
7efd5230:	bfbd23fe 	svclt	0x00bd23fe
7efd5234:	d75d5f55 			; <UNDEFINED> instruction: 0xd75d5f55
7efd5238:	bfdbaebe 	svclt	0x00dbaebe
7efd523c:	ff957df5 			; <UNDEFINED> instruction: 0xff957df5
7efd5240:	aeefaefb 	mcrge	14, 7, sl, cr15, cr11, {7}
7efd5244:	1735f7f4 			; <UNDEFINED> instruction: 0x1735f7f4
7efd5248:	aeaf6e8b 	cdpge	14, 10, cr6, cr15, cr11, {4}
7efd524c:	797f575d 	ldmdbvc	pc!, {r0, r2, r3, r4, r6, r8, r9, sl, ip, lr}^	; <UNPREDICTABLE>
7efd5250:	beeafafb 	mcrlt	10, 7, pc, cr10, cr11, {7}	; <UNPREDICTABLE>
7efd5254:	5dcdfdbe 	stclpl	13, cr15, [sp, #760]	; 0x2f8
7efd5258:	ffaeaefe 			; <UNDEFINED> instruction: 0xffaeaefe
7efd525c:	edfdff55 	ldcl	15, cr15, [sp, #340]!	; 0x154
7efd5260:	fc2fafaa 	stc2	15, cr10, [pc], #-680	; 0x7efd4fc0
7efd5264:	7dd5074d 	ldclvc	7, cr0, [r5, #308]	; 0x134
7efd5268:	f2afeb39 			; <UNDEFINED> instruction: 0xf2afeb39
7efd526c:	c7f4ff49 	ldrbgt	pc, [r4, r9, asr #30]!	; <UNPREDICTABLE>
7efd5270:	af6b8b9e 	svcge	0x006b8b9e
7efd5274:	edfcd7df 	ldcl	7, cr13, [ip, #892]!	; 0x37c
7efd5278:	aefe2bec 	vcvtge.s32.f64	d18, d18, #7
7efd527c:	9f7fffff 	svcls	0x007fffff
7efd5280:	efabbeee 	svc	0x00abbeee
7efd5284:	55f655d7 	ldrbpl	r5, [r6, #1495]!	; 0x5d7
7efd5288:	baaaedae 	blt	0x7da90948
7efd528c:	f7e77775 			; <UNDEFINED> instruction: 0xf7e77775
7efd5290:	9eeabeae 	cdpls	14, 14, cr11, cr10, cr14, {5}
7efd5294:	7f77ff66 	svcvc	0x0077ff66
7efd5298:	2be87bfb 	blcs	0x7e9f428c
7efd529c:	f759fd7d 	pld	[r9, -sp, ror sp]
7efd52a0:	fa7ab3ae 	blx	0x80e82160
7efd52a4:	51f379f3 	ldrshpl	r7, [r3, #147]!	; 0x93
7efd52a8:	2cf8b88b 	ldclcs	8, cr11, [r8], #556	; 0x22c
7efd52ac:	777d7def 	ldrbvc	r7, [sp, -pc, ror #27]!
7efd52b0:	ffbffbef 			; <UNDEFINED> instruction: 0xffbffbef
7efd52b4:	bf7d5e7f 	svclt	0x007d5e7f
7efd52b8:	ebbfebea 	bl	0x7dfd0268
7efd52bc:	7fbb46f7 	svcvc	0x00bb46f7
7efd52c0:	b9aabaaf 	stmiblt	sl!, {r0, r1, r2, r3, r5, r7, r9, fp, ip, sp, pc}
7efd52c4:	552fffc5 	strpl	pc, [pc, #-4037]!	; 0x7efd4307
7efd52c8:	ebeeafea 	bl	0x7eb81278
7efd52cc:	7f7fdddf 	svcvc	0x007fdddf
7efd52d0:	ae2fffa3 	cdpge	15, 2, cr15, cr15, cr3, {5}
7efd52d4:	f5d7f5d5 	pld	[r7, #1493]	; 0x5d5
7efd52d8:	fbeaabaa 	blx	0x7ea8018a
7efd52dc:	ebf75c96 	bl	0x7edac53c
7efd52e0:	baebaae6 	blt	0x7eabfe80
7efd52e4:	935d5f56 	cmpls	sp, #344	; 0x158
7efd52e8:	9aaebabe 	bls	0x7db83de8
7efd52ec:	75dd3f5f 	ldrbvc	r3, [sp, #3935]	; 0xf5f
7efd52f0:	bbaeb67f 	bllt	0x7db82cf4
7efd52f4:	bed7f275 	mrclt	2, 6, APSR_nzcv, cr7, cr5, {3}
7efd52f8:	fafa9afa 	blx	0x7ee7bee8
7efd52fc:	5d775d7f 	ldclpl	13, cr5, [r7, #-508]!	; 0xfffffe04
7efd5300:	fb3aba8f 	blx	0x7fe83d46
7efd5304:	7b6ffb57 	blvc	0x80bd4068
7efd5308:	faeeeeab 	blx	0x7eb90dbc
7efd530c:	757f77ef 	ldrbvc	r7, [pc, #-2031]!	; 0x7efd4b25
7efd5310:	afae2fab 	svcge	0x00ae2fab
7efd5314:	f57b7575 			; <UNDEFINED> instruction: 0xf57b7575
7efd5318:	fbaebacb 	blx	0x7db83e4e
7efd531c:	ffedd5f5 			; <UNDEFINED> instruction: 0xffedd5f5
7efd5320:	f3faeeeb 			; <UNDEFINED> instruction: 0xf3faeeeb
7efd5324:	757d5f65 	ldrbvc	r5, [sp, #-3941]!	; 0xf65
7efd5328:	febeeeef 	cdp2	14, 11, cr14, cr14, cr15, {7}
7efd532c:	77c75f67 	strbvc	r5, [r7, r7, ror #30]
7efd5330:	aaa7aabe 	bge	0x7d9bfe30
7efd5334:	d4d77714 	ldrble	r7, [r7], #1812	; 0x714
7efd5338:	aaeebf6c 	bge	0x7eb850f0
7efd533c:	7f7f6c6d 	svcvc	0x007f6c6d
7efd5340:	fababbfb 	blx	0x7de84334
7efd5344:	dd77ddb5 	ldclle	13, cr13, [r7, #-724]!	; 0xfffffd2c
7efd5348:	ce8beeab 	cdpgt	14, 8, cr14, cr11, cr11, {5}
7efd534c:	dcd6ffd4 	ldclle	15, cr15, [r6], {212}	; 0xd4
7efd5350:	aeebbbee 	vfmsge.f64	d27, d27, d30
7efd5354:	55f5975f 	ldrbpl	r9, [r5, #1887]!	; 0x75f
7efd5358:	e3aebea6 			; <UNDEFINED> instruction: 0xe3aebea6
7efd535c:	f7b3f17d 			; <UNDEFINED> instruction: 0xf7b3f17d
7efd5360:	7aeebafa 	bvc	0x7eb83f50
7efd5364:	bfff75f5 	svclt	0x00ff75f5
7efd5368:	c6efebbb 			; <UNDEFINED> instruction: 0xc6efebbb
7efd536c:	dddfff5f 	ldclle	15, cr15, [pc, #380]	; 0x7efd54f0
7efd5370:	ebbadeef 	bl	0x7de8cf34
7efd5374:	fb57fde7 	blx	0x805d4b1a
7efd5378:	daeefebb 	ble	0x7eb94e6c
7efd537c:	a55ded9f 	ldrbge	lr, [sp, #-3487]	; 0xd9f
7efd5380:	feffbfab 	cdp2	15, 15, cr11, cr15, cr11, {5}
7efd5384:	fedf7555 	mrc2	5, 6, r7, cr15, cr5, {2}
7efd5388:	fabfeaaa 	blx	0x7dfcfe38
7efd538c:	77f5b779 			; <UNDEFINED> instruction: 0x77f5b779
7efd5390:	2aaf6bbe 	bcs	0x7dbb0290
7efd5394:	5bff7dbf 	blpl	0x7efb4a98
7efd5398:	eeaabfeb 	cdp	15, 10, cr11, cr10, cr11, {7}
7efd539c:	3e3f7d0e 	cdpcc	13, 3, cr7, cr15, cr14, {0}
7efd53a0:	efffbfaa 	svc	0x00ffbfaa
7efd53a4:	c5fdd5cd 	ldrbgt	sp, [sp, #1485]!	; 0x5cd
7efd53a8:	f3ff8aae 	vtbl.8	d24, {d31-<overflow reg d33}, d30
7efd53ac:	5efd5b7d 	vmovpl.u8	r5, d13[7]
7efd53b0:	bf9b9eaa 	svclt	0x009b9eaa
7efd53b4:	77d7d777 			; <UNDEFINED> instruction: 0x77d7d777
7efd53b8:	febbeeae 	cdp2	14, 11, cr14, cr11, cr14, {5}
7efd53bc:	de7fffd5 	mrcle	15, 3, APSR_nzcv, cr15, cr5, {6}
7efd53c0:	69b2ebb8 	ldmibvs	r2!, {r3, r4, r5, r7, r8, r9, fp, sp, lr, pc}
7efd53c4:	7f7354f5 	svcvc	0x007354f5
7efd53c8:	fae6eeea 	blx	0x7e990f78
7efd53cc:	7dd5dd55 	ldclvc	13, cr13, [r5, #340]	; 0x154
7efd53d0:	efcae8aa 	svc	0x00cae8aa
7efd53d4:	bddf5d75 	ldcllt	13, cr5, [pc, #468]	; 0x7efd55b0
7efd53d8:	8b2eaafb 	blhi	0x7fb7ffcc
7efd53dc:	5dd7d755 	ldclpl	7, cr13, [r7, #340]	; 0x154
7efd53e0:	febfeaab 	cdp2	10, 11, cr14, cr15, cr11, {5}
7efd53e4:	3e777fcd 	cdpcc	15, 7, cr7, cr7, cr13, {6}
7efd53e8:	7fbeafee 	svcvc	0x00beafee
7efd53ec:	f3f7dd7f 			; <UNDEFINED> instruction: 0xf3f7dd7f
7efd53f0:	bfaabba9 	svclt	0x00aabba9
7efd53f4:	77df655f 			; <UNDEFINED> instruction: 0x77df655f
7efd53f8:	ffbefa7a 			; <UNDEFINED> instruction: 0xffbefa7a
7efd53fc:	7dfe757f 	cfldr64vc	mvdx7, [lr, #508]!	; 0x1fc
7efd5400:	babfaaaf 	blt	0x7dfbfec4
7efd5404:	f7ffddf9 			; <UNDEFINED> instruction: 0xf7ffddf9
7efd5408:	bdebaaaa 	stcllt	10, cr10, [fp, #680]!	; 0x2a8
7efd540c:	7c57f7d5 	mrrcvc	7, 13, pc, r7, cr5	; <UNPREDICTABLE>
7efd5410:	feffafeb 	cdp2	15, 15, cr10, cr15, cr11, {7}
7efd5414:	7ff765df 	svcvc	0x00f765df
7efd5418:	aeeebfea 	cdpge	15, 14, cr11, cr14, cr10, {7}
7efd541c:	4d55d557 	cfldr64mi	mvdx13, [r5, #-348]	; 0xfffffea4
7efd5420:	abafebea 	blge	0x7dbd03d0
7efd5424:	fddfd4ff 	ldc2l	4, cr13, [pc, #1020]	; 0x7efd5828
7efd5428:	93eeebae 	mvnls	lr, #178176	; 0x2b800
7efd542c:	e7b35d7f 			; <UNDEFINED> instruction: 0xe7b35d7f
7efd5430:	ffefeaaf 			; <UNDEFINED> instruction: 0xffefeaaf
7efd5434:	677167f5 			; <UNDEFINED> instruction: 0x677167f5
7efd5438:	afaaafab 	svcge	0x00aaafab
7efd543c:	d4597f57 	ldrble	r7, [r9], #-3927	; 0xf57
7efd5440:	aee3baef 	vfmsge.f32	s23, s7, s31
7efd5444:	575c66f7 	smmlsrpl	ip, r7, r6, r6
7efd5448:	fbaeaeb2 	blx	0x7db80f1a
7efd544c:	df65577f 	svcle	0x0065577f
7efd5450:	beaffafa 	mcrlt	10, 5, pc, cr15, cr10, {7}	; <UNPREDICTABLE>
7efd5454:	f315df75 	vmaxnm.f<illegal width 64>	<illegal reg q6.5>, <illegal reg q2.5>, <illegal reg q10.5>
7efd5458:	6eafbeae 	cdpvs	14, 10, cr11, cr15, cr14, {5}
7efd545c:	6557c5d5 	ldrbvs	ip, [r7, #-1493]	; 0x5d5
7efd5460:	abaeabaa 	blge	0x7db80310
7efd5464:	5577f57e 	ldrbpl	pc, [r7, #-1406]!	; 0x57e	; <UNPREDICTABLE>
7efd5468:	f8ebceba 			; <UNDEFINED> instruction: 0xf8ebceba
7efd546c:	7a875dee 	bvc	0x7d1acc2c
7efd5470:	faebaaae 	blx	0x7eabff30
7efd5474:	ff55977f 			; <UNDEFINED> instruction: 0xff55977f
7efd5478:	aaaadeba 	bge	0x7da8cf68
7efd547c:	555edd1f 	ldrbpl	sp, [lr, #-3359]	; 0xd1f
7efd5480:	baa27aab 	blt	0x7d873f34
7efd5484:	d757f55d 			; <UNDEFINED> instruction: 0xd757f55d
7efd5488:	fcdeeeaf 	ldc2l	14, cr14, [lr], {175}	; 0xaf
7efd548c:	df7cffcd 	svcle	0x007cffcd
7efd5490:	e6eb68f6 			; <UNDEFINED> instruction: 0xe6eb68f6
7efd5494:	5f7bdf5f 	svcpl	0x007bdf5f
7efd5498:	eeaafaea 	vfms.f32	s30, s21, s21
7efd549c:	fd35f75f 	ldc2	7, cr15, [r5, #-380]!	; 0xfffffe84
7efd54a0:	afeebefb 	svcge	0x00eebefb
7efd54a4:	f9f5f75d 			; <UNDEFINED> instruction: 0xf9f5f75d
7efd54a8:	aebbaacb 	vcvtge.f32.u32	s20, s20, #10
7efd54ac:	ff755d58 			; <UNDEFINED> instruction: 0xff755d58
7efd54b0:	aebbe8e3 	cdpge	8, 11, cr14, cr11, cr3, {7}
7efd54b4:	2dd755dc 	cfldr64cs	mvdx5, [r7, #880]	; 0x370
7efd54b8:	bacab8d3 	blt	0x7e28380c
7efd54bc:	f755bcfd 			; <UNDEFINED> instruction: 0xf755bcfd
7efd54c0:	eabbff24 	b	0x7ded5158
7efd54c4:	d557bddd 	ldrble	fp, [r7, #-3549]	; 0xddd
7efd54c8:	aabbeefa 	bge	0x7ded10b8
7efd54cc:	f77bf677 			; <UNDEFINED> instruction: 0xf77bf677
7efd54d0:	ffabeabc 			; <UNDEFINED> instruction: 0xffabeabc
7efd54d4:	5b7fd5bd 	blpl	0x80fcabd0
7efd54d8:	afefbb7e 	svcge	0x00efbb7e
7efd54dc:	7ff5fdd5 	svcvc	0x00f5fdd5
7efd54e0:	abfebafb 	blge	0x7ef840d4
7efd54e4:	665f5577 			; <UNDEFINED> instruction: 0x665f5577
7efd54e8:	bfaaeaae 	svclt	0x00aaeaae
7efd54ec:	3d6f57d5 	stclcc	7, cr5, [pc, #-852]!	; 0x7efd51a0
7efd54f0:	bfea6afe 	svclt	0x00ea6afe
7efd54f4:	5fee4d5d 	svcpl	0x00ee4d5d
7efd54f8:	afabeedb 	svcge	0x00abeedb
7efd54fc:	7d1d87f7 	ldcvc	7, cr8, [sp, #-988]	; 0xfffffc24
7efd5500:	3dfaeeee 	ldclcc	14, cr14, [sl, #952]!	; 0x3b8
7efd5504:	f77ed7d7 			; <UNDEFINED> instruction: 0xf77ed7d7
7efd5508:	eb3a2aba 	bl	0x7fe5fff8
7efd550c:	9f15ddfe 	svcls	0x0015ddfe
7efd5510:	eeabffbf 	mcr	15, 5, pc, cr11, cr15, {5}	; <UNPREDICTABLE>
7efd5514:	8d76dc3d 	ldclhi	12, cr13, [r6, #-244]!	; 0xffffff0c
7efd5518:	aaabf3ff 	bge	0x7dad251c
7efd551c:	7dff6555 	cfldr64vc	mvdx6, [pc, #340]!	; 0x7efd5678
7efd5520:	6ba9aa2e 	blvs	0x7da3fde0
7efd5524:	e3a07077 	mov	r7, #119	; 0x77
7efd5528:	ef900077 	svc	0x00900077
7efd552c:	df002777 	svcle	0x00002777
7efd5530:	e3a070ad 	mov	r7, #173	; 0xad
7efd5534:	ef9000ad 	svc	0x009000ad
7efd5538:	df0027ad 	svcle	0x000027ad
7efd553c:	00000000 	andeq	r0, r0, r0
7efd5540:	f2ba88af 	vmlal.s<illegal width 64>	q4, d26, d31
7efd5544:	77d75ddb 			; <UNDEFINED> instruction: 0x77d75ddb
7efd5548:	aaafbfcb 	bge	0x7dbc547c
7efd554c:	5df75975 	ldclpl	9, cr5, [r7, #468]!	; 0x1d4
7efd5550:	2afaeefe 	bcs	0x7ee91150
7efd5554:	ff3df7df 			; <UNDEFINED> instruction: 0xff3df7df
7efd5558:	bbeeebba 	bllt	0x7eb90448
7efd555c:	ddfef7d5 	ldclle	7, cr15, [lr, #852]!	; 0x354
7efd5560:	e6ffea8b 	ldrbt	lr, [pc], fp, lsl #21
7efd5564:	f5ddfff7 	pld	[sp, #4087]	; 0xff7
7efd5568:	a6ebfee2 	strbtge	pc, [fp], r2, ror #29	; <UNPREDICTABLE>
7efd556c:	c36ffbdf 	msrgt	SPSR_fsxc, #228352	; 0x37c00
7efd5570:	baeebeff 	blt	0x7eb85174
7efd5574:	f5595fd7 			; <UNDEFINED> instruction: 0xf5595fd7
7efd5578:	aaafaaba 	bge	0x7dbc0068
7efd557c:	ff95de50 			; <UNDEFINED> instruction: 0xff95de50
7efd5580:	befeef8a 	cdplt	15, 15, cr14, cr14, cr10, {4}
7efd5584:	55f0fbef 	ldrbpl	pc, [r0, #3055]!	; 0xbef	; <UNPREDICTABLE>
7efd5588:	aefeb22a 	cdpge	2, 15, cr11, cr14, cr10, {1}
7efd558c:	d7f7dfd6 	ubfxle	sp, r6, #31, #24
7efd5590:	eaabfbea 	b	0x7dad4540
7efd5594:	d1d7dc71 	bicsle	sp, r7, r1, ror ip
7efd5598:	efbebed6 	svc	0x00bebed6
7efd559c:	fff90cc5 			; <UNDEFINED> instruction: 0xfff90cc5
7efd55a0:	fffaafba 			; <UNDEFINED> instruction: 0xfffaafba
7efd55a4:	5757f75f 			; <UNDEFINED> instruction: 0x5757f75f
7efd55a8:	abbfefee 	blge	0x7dfd1568
7efd55ac:	757c5b57 	ldrbvc	r5, [ip, #-2903]!	; 0xb57
7efd55b0:	faff9fff 	blx	0x7efbd5b4
7efd55b4:	e3bc3d55 			; <UNDEFINED> instruction: 0xe3bc3d55
7efd55b8:	fe3ffa9b 	vselgt.f32	s30, s31, s22
7efd55bc:	e67d5f97 	uhadd8	r5, sp, r7
7efd55c0:	f2fabeea 	vext.8	<illegal reg q13.5>, q13, q13, #14
7efd55c4:	615e3dde 	ldrsbvs	r3, [lr, #-222]	; 0xffffff22
7efd55c8:	b9fafeaf 	ldmiblt	sl!, {r0, r1, r2, r3, r5, r7, r9, sl, fp, ip, sp, lr, pc}^
7efd55cc:	d5fdfdf5 	ldrble	pc, [sp, #3573]!	; 0xdf5	; <UNPREDICTABLE>
7efd55d0:	aafeee7d 	bge	0x7ef90fcc
7efd55d4:	7f77515f 	svcvc	0x0077515f
7efd55d8:	aefaa9ab 	cdpge	9, 15, cr10, cr10, cr11, {5}
7efd55dc:	f75dcff7 			; <UNDEFINED> instruction: 0xf75dcff7
7efd55e0:	ebeefefa 	bl	0x7eb951d0
7efd55e4:	6b7b777b 	blvs	0x80eb33d8
7efd55e8:	79aa29ef 	stmibvc	sl!, {r0, r1, r2, r3, r5, r6, r7, r8, fp, sp}
7efd55ec:	77f71d35 			; <UNDEFINED> instruction: 0x77f71d35
7efd55f0:	befefb6f 	vcvtlt.s16.f64	d31, d31, #-15
7efd55f4:	55d7f9ff 	ldrbpl	pc, [r7, #2559]	; 0x9ff	; <UNPREDICTABLE>
7efd55f8:	afe8f8ee 	svcge	0x00e8f8ee
7efd55fc:	f7dd77ff 			; <UNDEFINED> instruction: 0xf7dd77ff
7efd5600:	beb8aedb 	mrclt	14, 5, sl, cr8, cr11, {6}
7efd5604:	1d7d7d7f 	ldclne	13, cr7, [sp, #-508]!	; 0xfffffe04
7efd5608:	bffbbabf 	svclt	0x00fbbabf
7efd560c:	57ff557d 			; <UNDEFINED> instruction: 0x57ff557d
7efd5610:	cababbfe 	bgt	0x7de84610
7efd5614:	c7d6fdd6 			; <UNDEFINED> instruction: 0xc7d6fdd6
7efd5618:	bbe2feea 	bllt	0x7e8951c8
7efd561c:	7f4b5df5 	svcvc	0x004b5df5
7efd5620:	afbaeefb 	svcge	0x00baeefb
7efd5624:	715dd797 			; <UNDEFINED> instruction: 0x715dd797
7efd5628:	fbfab6ea 	blx	0x7ee831da
7efd562c:	d4f5def7 	ldrbtle	sp, [r5], #3831	; 0xef7
7efd5630:	abdbfdcd 	blge	0x7e6d4d6c
7efd5634:	15f7fd57 	ldrbne	pc, [r7, #3415]!	; 0xd57	; <UNPREDICTABLE>
7efd5638:	f7edea6a 			; <UNDEFINED> instruction: 0xf7edea6a
7efd563c:	5f7fdd77 	svcpl	0x007fdd77
7efd5640:	bbe6afee 	bllt	0x7e981600
7efd5644:	54ddf5fd 	ldrbpl	pc, [sp], #1533	; 0x5fd	; <UNPREDICTABLE>
7efd5648:	ebabeaaa 	bl	0x7dad00f8
7efd564c:	6dbfd3d5 	ldcvs	3, cr13, [pc, #852]!	; 0x7efd59a8
7efd5650:	beaafeee 	cdplt	14, 10, cr15, cr10, cr14, {7}
7efd5654:	dfd55f1e 	svcle	0x00d55f1e
7efd5658:	ff7a2efa 			; <UNDEFINED> instruction: 0xff7a2efa
7efd565c:	fd534555 	ldc2l	5, cr4, [r3, #-340]	; 0xfffffeac
7efd5660:	1ffadaa6 	svcne	0x00fadaa6
7efd5664:	7f5bd55f 	svcvc	0x005bd55f
7efd5668:	eccba8a3 	stcl	8, cr10, [fp], {163}	; 0xa3
7efd566c:	73d9f747 	bicsvc	pc, r9, #18612224	; 0x11c0000
7efd5670:	bbbbbbaa 	bllt	0x7dec4520
7efd5674:	53f77377 	mvnspl	r7, #-603979775	; 0xdc000001
7efd5678:	8bbea2fe 	blhi	0x7df7e278
7efd567c:	e57dd5dd 	ldrb	sp, [sp, #-1501]!	; 0x5dd
7efd5680:	befaeffe 	mrclt	15, 7, lr, cr10, cr14, {7}
7efd5684:	5ffde7ff 	svcpl	0x00fde7ff
7efd5688:	feeafab2 	mcr2	10, 7, pc, cr10, cr2, {5}	; <UNPREDICTABLE>
7efd568c:	75dfffc7 	ldrbvc	pc, [pc, #4039]	; 0x7efd665b	; <UNPREDICTABLE>
7efd5690:	eaeff1ec 	b	0x7ebd1e48
7efd5694:	dd7df37b 	ldclle	3, cr15, [sp, #-492]!	; 0xfffffe14
7efd5698:	abbaeabf 	blge	0x7de9019c
7efd569c:	fbdf5745 	blx	0x7e7ab3ba
7efd56a0:	ffffabae 			; <UNDEFINED> instruction: 0xffffabae
7efd56a4:	dffddd9f 	svcle	0x00fddd9f
7efd56a8:	e7faeefa 	udf	#44778	; 0xaeea
7efd56ac:	f77ddfd9 			; <UNDEFINED> instruction: 0xf77ddfd9
7efd56b0:	aecaee69 	cdpge	14, 12, cr14, cr10, cr9, {3}
7efd56b4:	f5ed3fd5 			; <UNDEFINED> instruction: 0xf5ed3fd5
7efd56b8:	feaffea7 	cdp2	14, 10, cr15, cr15, cr7, {5}
7efd56bc:	7ddff7d9 	ldclvc	7, cr15, [pc, #868]	; 0x7efd5a28
7efd56c0:	2bbffeba 	blcs	0x7dfd51b0
7efd56c4:	555544f5 	ldrbpl	r4, [r5, #-1269]	; 0x4f5
7efd56c8:	a9fa8bbe 	ldmibge	sl!, {r1, r2, r3, r4, r5, r7, r8, r9, fp, pc}^
7efd56cc:	97dddf76 			; <UNDEFINED> instruction: 0x97dddf76
7efd56d0:	9aebbbbd 	bls	0x7eac45cc
7efd56d4:	ff57e55f 			; <UNDEFINED> instruction: 0xff57e55f
7efd56d8:	ebae6a8b 	bl	0x7db7010c
7efd56dc:	dfe76ffd 	svcle	0x00e76ffd
7efd56e0:	9a2fabfe 	bls	0x7fbc06e0
7efd56e4:	6c7757ef 	ldclvs	7, cr5, [r7], #-956	; 0xfffffc44
7efd56e8:	be8b88ba 	mcrlt	8, 4, r8, cr11, cr10, {5}
7efd56ec:	f795ddcf 			; <UNDEFINED> instruction: 0xf795ddcf
7efd56f0:	abacfebb 	blge	0x7db151e4
7efd56f4:	f5d5f5ed 	pld	[r5, #1517]	; 0x5ed
7efd56f8:	afbeafbf 	svcge	0x00beafbf
7efd56fc:	775d457f 			; <UNDEFINED> instruction: 0x775d457f
7efd5700:	ffaabfea 			; <UNDEFINED> instruction: 0xffaabfea
7efd5704:	7fdfd5b7 	svcvc	0x00dfd5b7
7efd5708:	6aafeefe 	bvs	0x7dbd1308
7efd570c:	5d3e5db7 	ldcpl	13, cr5, [lr, #-732]!	; 0xfffffd24
7efd5710:	efb3bbf2 	svc	0x00b3bbf2
7efd5714:	c1fdd53f 	mvnsgt	sp, pc, lsr r5
7efd5718:	eea8efe6 	cdp	15, 10, cr14, cr8, cr6, {7}
7efd571c:	6fd7d757 	svcvs	0x00d7d757
7efd5720:	baeb9fab 	blt	0x7eabd5d4
7efd5724:	47fbedef 	ldrbmi	lr, [fp, pc, ror #27]!
7efd5728:	b8bfaaea 	ldmlt	pc!, {r1, r3, r5, r6, r7, r9, fp, sp, pc}	; <UNPREDICTABLE>
7efd572c:	7d957d65 	ldcvc	13, cr7, [r5, #404]	; 0x194
7efd5730:	abcaefee 	blge	0x7e2916f0
7efd5734:	fb7d5f77 	blx	0x80f2d51a
7efd5738:	ececafea 	stcl	15, cr10, [ip], #936	; 0x3a8
7efd573c:	bdd7d51d 	cfldr64lt	mvdx13, [r7, #116]	; 0x74
7efd5740:	beabfbef 	vfmslt.f64	d15, d27, d31
7efd5744:	d77ff397 			; <UNDEFINED> instruction: 0xd77ff397
7efd5748:	eab8efef 	b	0x7de1170c
7efd574c:	5fe3f6e6 	svcpl	0x00e3f6e6
7efd5750:	bb3f2aea 	bllt	0x7ffa0300
7efd5754:	7d47d4cf 	cfstrdvc	mvd13, [r7, #-828]	; 0xfffffcc4
7efd5758:	faabeaae 	blx	0x7dad0218
7efd575c:	dfbc5d52 	svcle	0x00bc5d52
7efd5760:	aefeabfe 	vmovge.u8	sl, d30[7]
7efd5764:	f9ddf57d 			; <UNDEFINED> instruction: 0xf9ddf57d
7efd5768:	fcaafaba 	stc2	10, cr15, [sl], #744	; 0x2e8
7efd576c:	7ddf53d9 	ldclvc	3, cr5, [pc, #868]	; 0x7efd5ad8
7efd5770:	ebabaf1e 	bl	0x7dac13f0
7efd5774:	e1745541 	cmn	r4, r1, asr #10
7efd5778:	eefbaf0a 	cdp	15, 15, cr10, cr11, cr10, {0}
7efd577c:	de7ff7db 	mrcle	7, 3, APSR_nzcv, cr15, cr11, {6}
7efd5780:	aaee0aea 	bge	0x7eb58330
7efd5784:	7ff5fff7 	svcvc	0x00f5fff7
7efd5788:	f2bab9ae 	vqdmlal.s<illegal width 64>	<illegal reg q5.5>, d26, d30
7efd578c:	5f65c8d5 	svcpl	0x0065c8d5
7efd5790:	acc2abfa 	vstmiage	r2, {d26-<overflow reg d86>}
7efd5794:	5ede77ef 	cdppl	7, 13, cr7, cr14, cr15, {7}
7efd5798:	dbabeaeb 	blle	0x7dad034c
7efd579c:	f5f1ffdd 			; <UNDEFINED> instruction: 0xf5f1ffdd
7efd57a0:	cbd2bf3a 	blgt	0x7e485490
7efd57a4:	f577f577 			; <UNDEFINED> instruction: 0xf577f577
7efd57a8:	4bfaa7fa 	blmi	0x7ee7f798
7efd57ac:	55df95db 	ldrbpl	r9, [pc, #1499]	; 0x7efd5d8f
7efd57b0:	acaafaa6 	vstmiage	sl!, {s30-s195}
7efd57b4:	a1cfcfc3 	bicge	ip, pc, r3, asr #31
7efd57b8:	dba6fabd 	blle	0x7d9942b4
7efd57bc:	5fff7d17 	svcpl	0x00ff7d17
7efd57c0:	eaffb7f8 	b	0x7efc37a8
7efd57c4:	75d7d1fd 	ldrbvc	sp, [r7, #509]	; 0x1fd
7efd57c8:	aaeaaaeb 	bge	0x7ea8037c
7efd57cc:	df65f46f 	svcle	0x0065f46f
7efd57d0:	afaaaebb 	svcge	0x00aaaebb
7efd57d4:	59d778fd 	ldmibpl	r7, {r0, r2, r3, r4, r5, r6, r7, fp, ip, sp, lr}^
7efd57d8:	ebefef9f 	bl	0x7ebd165c
7efd57dc:	dfff75ff 	svcle	0x00ff75ff
7efd57e0:	aeaeb869 	cdpge	8, 10, cr11, cr14, cr9, {3}
7efd57e4:	3c5515d7 	cfldr64cc	mvdx1, [r5], {215}	; 0xd7
7efd57e8:	faf7befa 	blx	0x7edc53d8
7efd57ec:	3fdf57d5 	svccc	0x00df57d5
7efd57f0:	fb6ffbe9 	blx	0x80bd479e
7efd57f4:	12fdf5ff 	rscsne	pc, sp, #1069547520	; 0x3fc00000
7efd57f8:	9abaf8eb 	bls	0x7de93bac
7efd57fc:	d366f1f3 	msrle	SPSR_sx, #-1073741764	; 0xc000003c
7efd5800:	f4a6bfaf 	vld4.32	{d11[],d13[],d15[],d17[]}, [r6]
7efd5804:	f4f7f9af 			; <UNDEFINED> instruction: 0xf4f7f9af
7efd5808:	bd63f913 	stcllt	9, cr15, [r3, #-76]!	; 0xffffffb4
7efd580c:	fdbdffd7 	ldc2	15, cr15, [sp, #860]!	; 0x35c
7efd5810:	ebebeeab 	bl	0x7ead12c4
7efd5814:	efa7f5fd 	svc	0x00a7f5fd
7efd5818:	ffaeeffa 			; <UNDEFINED> instruction: 0xffaeeffa
7efd581c:	8efedfc6 	cdphi	15, 15, cr13, cr14, cr6, {6}
7efd5820:	abb29eae 	blge	0x7dc7d2e0
7efd5824:	ffedf7df 			; <UNDEFINED> instruction: 0xffedf7df
7efd5828:	aefafbef 	vcvtge.f64.s32	d31, d31, #1
7efd582c:	f54f3af9 			; <UNDEFINED> instruction: 0xf54f3af9
7efd5830:	eaeaa4e8 	b	0x7ea7ebd8
7efd5834:	f7ddddf9 			; <UNDEFINED> instruction: 0xf7ddddf9
7efd5838:	ebbff7aa 	bl	0x7dfd36e8
7efd583c:	fffd3df2 			; <UNDEFINED> instruction: 0xfffd3df2
7efd5840:	fb3edbf9 	blx	0x7ff8c82e
7efd5844:	f7ff75da 			; <UNDEFINED> instruction: 0xf7ff75da
7efd5848:	8b6a6cbf 	blhi	0x80a70b4c
7efd584c:	5ddfcfdd 	ldclpl	15, cr12, [pc, #884]	; 0x7efd5bc8
7efd5850:	eaaeffea 	b	0x7db95800
7efd5854:	7dd7fdfd 	ldclvc	13, cr15, [r7, #1012]	; 0x3f4
7efd5858:	3affaf6b 	bcc	0x7efc160c
7efd585c:	7fffd55f 	svcvc	0x00ffd55f
7efd5860:	ab8aa3aa 	blge	0x7d27e710
7efd5864:	6f53fd5e 	svcvs	0x0053fd5e
7efd5868:	eea78afe 	mcr	10, 5, r8, cr7, cr14, {7}
7efd586c:	35dfdeee 	ldrbcc	sp, [pc, #3822]	; 0x7efd6762
7efd5870:	2beebfba 	blcs	0x7eb85760
7efd5874:	bbea7f34 	bllt	0x7ea7554c
7efd5878:	6ab7fbaa 	bvs	0x7ddd4728
7efd587c:	f17fd5fb 			; <UNDEFINED> instruction: 0xf17fd5fb
7efd5880:	afeabbaf 	svcge	0x00eabbaf
7efd5884:	f337faff 	vpmin.u<illegal width 64>	<illegal reg q7.5>, <illegal reg q11.5>, <illegal reg q15.5>
7efd5888:	fafbaeea 	blx	0x7eec1438
7efd588c:	55b7751d 	ldrpl	r7, [r7, #1309]!	; 0x51d
7efd5890:	f2ab2be7 	vqdmull.s32	q1, d27, d7[1]
7efd5894:	5cfb4cef 	ldclpl	12, cr4, [fp], #956	; 0x3bc
7efd5898:	ebab8ea9 	bl	0x7dab9344
7efd589c:	bdffc57f 	cfldr64lt	mvdx12, [pc, #508]!	; 0x7efd5aa0
7efd58a0:	bebdfaeb 	vcvtlt.s32.f32	s30, s23
7efd58a4:	755f677d 	ldrbvc	r6, [pc, #-1917]	; 0x7efd512f
7efd58a8:	e2eeff2b 	rsc	pc, lr, #43, 30	; 0xac
7efd58ac:	bd5ef51e 	cfldr64lt	mvdx15, [lr, #-120]	; 0xffffff88
7efd58b0:	feafaaff 	mcr2	10, 5, sl, cr15, cr15, {7}
7efd58b4:	5bdf55f1 	blpl	0x7e7ab080
7efd58b8:	baa326bb 	blt	0x7d89f3ac
7efd58bc:	77fd765d 	ubfxvc	r7, sp, #12, #30
7efd58c0:	ebafbebe 	bl	0x7dbc53c0
7efd58c4:	5bdeddd6 	blpl	0x7e78d024
7efd58c8:	ababeeba 	blge	0x7dad13b8
7efd58cc:	0dcf5f5f 	stcleq	15, cr5, [pc, #380]	; 0x7efd5a50
7efd58d0:	abeeffa3 	blge	0x7eb95764
7efd58d4:	f73755dd 			; <UNDEFINED> instruction: 0xf73755dd
7efd58d8:	afe28bd8 	svcge	0x00e28bd8
7efd58dc:	dff5dd75 	svcle	0x00f5dd75
7efd58e0:	effaaefe 	svc	0x00faaefe
7efd58e4:	9dfd5e6f 	ldclls	14, cr5, [sp, #444]!	; 0x1bc
7efd58e8:	8fe4ebea 	svchi	0x00e4ebea
7efd58ec:	7dd5ff7f 	ldclvc	15, cr15, [r5, #508]	; 0x1fc
7efd58f0:	3beffaef 	blcc	0x7ebd44b4
7efd58f4:	6fd577ff 	svcvs	0x00d577ff
7efd58f8:	eebeb2be 	mrc	2, 5, fp, cr14, cr14, {5}
7efd58fc:	f55dfb7e 	pld	[sp, #-2942]	; 0xb7e
7efd5900:	aeefefae 	cdpge	15, 14, cr14, cr15, cr14, {5}
7efd5904:	7f5d7d7e 	svcvc	0x005d7d7e
7efd5908:	ffa3faea 			; <UNDEFINED> instruction: 0xffa3faea
7efd590c:	f57defbf 			; <UNDEFINED> instruction: 0xf57defbf
7efd5910:	ee8bfaeb 	cdp	10, 8, cr15, cr11, cr11, {7}
7efd5914:	54d57fd5 	ldrbpl	r7, [r5], #4053	; 0xfd5
7efd5918:	fafeeffc 	blx	0x7ef91910
7efd591c:	bb5746dd 	bllt	0x805a7498
7efd5920:	bfbebafa 	svclt	0x00bebafa
7efd5924:	eff277fd 	svc	0x00f277fd
7efd5928:	9ee3eaef 	vfmsls.f32	s29, s7, s31
7efd592c:	2f5cfddb 	svccs	0x005cfddb
7efd5930:	fa6aafba 	blx	0x80a81820
7efd5934:	fb7fdf75 	blx	0x80fcd712
7efd5938:	f3ecafbc 			; <UNDEFINED> instruction: 0xf3ecafbc
7efd593c:	ffd9dcef 			; <UNDEFINED> instruction: 0xffd9dcef
7efd5940:	a7abefab 	strge	lr, [fp, fp, lsr #31]!
7efd5944:	eef5d757 	mrc	7, 7, sp, cr5, cr7, {2}
7efd5948:	aefeebfe 	vmovge.u8	lr, d30[7]
7efd594c:	f7f76375 			; <UNDEFINED> instruction: 0xf7f76375
7efd5950:	acbbafda 	ldcge	15, cr10, [fp], #872	; 0x368
7efd5954:	fd59f777 	ldc2l	7, cr15, [r9, #-476]	; 0xfffffe24
7efd5958:	f2faffab 			; <UNDEFINED> instruction: 0xf2faffab
7efd595c:	f3d7fb57 			; <UNDEFINED> instruction: 0xf3d7fb57
7efd5960:	b86abaae 	stmdalt	sl!, {r1, r2, r3, r5, r7, r9, fp, ip, sp, pc}^
7efd5964:	56d1f3fd 			; <UNDEFINED> instruction: 0x56d1f3fd
7efd5968:	fffffefa 			; <UNDEFINED> instruction: 0xfffffefa
7efd596c:	73f5f713 	mvnsvc	pc, #4980736	; 0x4c0000
7efd5970:	aebe9baa 	cdpge	11, 11, cr9, cr14, cr10, {5}
7efd5974:	5c75e37d 	ldclpl	3, cr14, [r5], #-500	; 0xfffffe0c
7efd5978:	6aaafb03 	bvs	0x7da9458c
7efd597c:	7f757c73 	svcvc	0x00757c73
7efd5980:	faaebabe 	blx	0x7db84480
7efd5984:	75dd9457 	ldrbvc	r9, [sp, #1111]	; 0x457
7efd5988:	92aebace 	adcls	fp, lr, #843776	; 0xce000
7efd598c:	ff37dd7f 			; <UNDEFINED> instruction: 0xff37dd7f
7efd5990:	eaefacfa 	b	0x7ebc0d80
7efd5994:	46f7fbf5 			; <UNDEFINED> instruction: 0x46f7fbf5
7efd5998:	9f87a2fe 	svcls	0x0087a2fe
7efd599c:	d7d7f6d7 			; <UNDEFINED> instruction: 0xd7d7f6d7
7efd59a0:	befabeb9 	mrclt	14, 7, fp, cr10, cr9, {5}
7efd59a4:	6fdcf3db 	svcvs	0x00dcf3db
7efd59a8:	77babfaa 	ldrvc	fp, [sl, sl, lsr #31]!
7efd59ac:	f7fbf5a3 			; <UNDEFINED> instruction: 0xf7fbf5a3
7efd59b0:	aeafd98b 	cdpge	9, 10, cr13, cr15, cr11, {4}
7efd59b4:	f971ffd5 			; <UNDEFINED> instruction: 0xf971ffd5
7efd59b8:	bbb83bff 	bllt	0x7dde49bc
7efd59bc:	55f57d7d 	ldrbpl	r7, [r5, #3453]!	; 0xd7d
7efd59c0:	3feafbfa 	svccc	0x00eafbfa
7efd59c4:	5f7f537f 	svcpl	0x007f537f
7efd59c8:	fb7afbaf 	blx	0x80e9488e
7efd59cc:	df5ebf5f 	svcle	0x005ebf5f
7efd59d0:	baafbeee 	blt	0x7dbc5590
7efd59d4:	e5fb477d 	ldrb	r4, [fp, #1917]!	; 0x77d
7efd59d8:	f9ee8aaa 			; <UNDEFINED> instruction: 0xf9ee8aaa
7efd59dc:	fdb777c7 	ldc2	7, cr7, [r7, #796]!	; 0x31c
7efd59e0:	ebbbebbf 	bl	0x7ded08e4
7efd59e4:	559d6f5b 	ldrpl	r6, [sp, #3931]	; 0xf5b
7efd59e8:	fadfbbfe 	blx	0x7e7c49e8
7efd59ec:	77f757f5 			; <UNDEFINED> instruction: 0x77f757f5
7efd59f0:	bebf8bba 	vmovlt.u16	r8, d31[2]
7efd59f4:	5a717565 	bpl	0x80c32f90
7efd59f8:	bbebfdb7 	bllt	0x7ead50dc
7efd59fc:	a55ff7dc 	ldrbge	pc, [pc, #-2012]	; 0x7efd5228	; <UNPREDICTABLE>
7efd5a00:	aab17eeb 	bge	0x7dc355b4
7efd5a04:	7d95ad73 	ldcvc	13, cr10, [r5, #460]	; 0x1cc
7efd5a08:	bffb2abe 	svclt	0x00fb2abe
7efd5a0c:	d7777eff 			; <UNDEFINED> instruction: 0xd7777eff
7efd5a10:	afbbfea9 	svcge	0x00bbfea9
7efd5a14:	bdf5dfc5 	ldcllt	15, cr13, [r5, #788]!	; 0x314
7efd5a18:	baeb3aab 	blt	0x7eaa44cc
7efd5a1c:	7ffdffdd 	svcvc	0x00fdffdd
7efd5a20:	f2efaaba 			; <UNDEFINED> instruction: 0xf2efaaba
7efd5a24:	d7db7f77 			; <UNDEFINED> instruction: 0xd7db7f77
7efd5a28:	eeaaabaa 	vfma.f64	d10, d26, d26
7efd5a2c:	fdfdffef 	ldc2l	15, cr15, [sp, #956]!	; 0x3bc
7efd5a30:	be2bbeab 	cdplt	14, 2, cr11, cr11, cr11, {5}
7efd5a34:	fd377dcf 	ldc2	13, cr7, [r7, #-828]!	; 0xfffffcc4
7efd5a38:	abaf6aee 	blge	0x7dbb05f8
7efd5a3c:	547e7f5d 	ldrbtpl	r7, [lr], #-3933	; 0xf5d
7efd5a40:	abbbaef8 	blge	0x7dec1628
7efd5a44:	d591cf67 	ldrle	ip, [r1, #3943]	; 0xf67
7efd5a48:	ba99b3ef 	blt	0x7d642a0c
7efd5a4c:	5555f7ff 	ldrbpl	pc, [r5, #-2047]	; 0x7ff	; <UNPREDICTABLE>
7efd5a50:	bebeefb7 	mrclt	15, 5, lr, cr14, cr7, {5}
7efd5a54:	5fb7dbd5 	svcpl	0x00b7dbd5
7efd5a58:	eefebf6f 	cdp	15, 15, cr11, cr14, cr15, {3}
7efd5a5c:	ff5d775f 			; <UNDEFINED> instruction: 0xff5d775f
7efd5a60:	e8aebfee 	stmia	lr!, {r1, r2, r3, r5, r6, r7, r8, r9, sl, fp, ip, sp, pc}
7efd5a64:	75f7dfbd 	ldrbvc	sp, [r7, #4029]!	; 0xfbd
7efd5a68:	cbfeaafe 	blgt	0x7ef80668
7efd5a6c:	ff9ffdd3 			; <UNDEFINED> instruction: 0xff9ffdd3
7efd5a70:	abff6beb 	blge	0x7efb0a24
7efd5a74:	f867c4ff 			; <UNDEFINED> instruction: 0xf867c4ff
7efd5a78:	3bbf9fa3 	blcc	0x7dfbd90c
7efd5a7c:	c99fdff5 	ldmibgt	pc, {r0, r2, r4, r5, r6, r7, r8, r9, sl, fp, ip, lr, pc}	; <UNPREDICTABLE>
7efd5a80:	f9eaeaab 			; <UNDEFINED> instruction: 0xf9eaeaab
7efd5a84:	c7df67fd 			; <UNDEFINED> instruction: 0xc7df67fd
7efd5a88:	eba42b2e 	bl	0x7d8e0748
7efd5a8c:	f3dedf24 			; <UNDEFINED> instruction: 0xf3dedf24
7efd5a90:	faafebef 	blx	0x7dbd0a54
7efd5a94:	fdf5777f 	ldc2l	7, cr7, [r5, #508]!	; 0x1fc
7efd5a98:	8baafb6d 	blhi	0x7da94854
7efd5a9c:	dfdf55ec 	svcle	0x00df55ec
7efd5aa0:	fee3ebeb 	cdp2	11, 14, cr14, cr3, cr11, {7}
7efd5aa4:	dd776df7 	ldclle	13, cr6, [r7, #-988]!	; 0xfffffc24
7efd5aa8:	afeaaeae 	svcge	0x00eaaeae
7efd5aac:	edd3187d 	ldcl	8, cr1, [r3, #500]	; 0x1f4
7efd5ab0:	acbeeffb 	ldcge	15, cr14, [lr], #1004	; 0x3ec
7efd5ab4:	fdd6119f 	ldc2l	1, cr1, [r6, #636]	; 0x27c
7efd5ab8:	beabbfba 	mcrlt	15, 5, fp, cr11, cr10, {5}
7efd5abc:	53b57ff7 			; <UNDEFINED> instruction: 0x53b57ff7
7efd5ac0:	bebffbab 	cdplt	11, 11, cr15, cr15, cr11, {5}
7efd5ac4:	f7dfcd79 			; <UNDEFINED> instruction: 0xf7dfcd79
7efd5ac8:	2ef7acbd 	mrccs	12, 7, sl, cr7, cr13, {5}
7efd5acc:	0f54fffc 	svceq	0x0054fffc
7efd5ad0:	ebaeabaa 	bl	0x7db80980
7efd5ad4:	f6bddd0f 			; <UNDEFINED> instruction: 0xf6bddd0f
7efd5ad8:	eab9fbfe 	b	0x7de54ad8
7efd5adc:	57df7775 			; <UNDEFINED> instruction: 0x57df7775
7efd5ae0:	adaa7fbf 	stcge	15, cr7, [sl, #764]!	; 0x2fc
7efd5ae4:	5d3fee7c 	ldcpl	14, cr14, [pc, #-496]!	; 0x7efd58fc
7efd5ae8:	eefceace 	vcvt.u32.f32	s29, s28
7efd5aec:	b1ff7dff 	ldrshlt	r7, [pc, #223]	; 0x7efd5bd3
7efd5af0:	bebe8fbf 	mrclt	15, 5, r8, cr14, cr15, {5}
7efd5af4:	75bffcfd 	ldrvc	pc, [pc, #3325]!	; 0x7efd67f9
7efd5af8:	ebcbbe9a 	bl	0x7e2c5568
7efd5afc:	abd5b575 	blge	0x7e5430d8
7efd5b00:	9faaffeb 	svcls	0x00aaffeb
7efd5b04:	55d75767 	ldrbpl	r5, [r7, #1895]	; 0x767
7efd5b08:	eabbffbf 	b	0x7ded5a0c
7efd5b0c:	7dd657f5 	ldclvc	7, cr5, [r6, #980]	; 0x3d4
7efd5b10:	eeafca8a 	vfma.f32	s24, s31, s20
7efd5b14:	77f77579 			; <UNDEFINED> instruction: 0x77f77579
7efd5b18:	beabbf6e 	cdplt	15, 10, cr11, cr11, cr14, {3}
7efd5b1c:	f77d57c8 			; <UNDEFINED> instruction: 0xf77d57c8
7efd5b20:	23afebab 			; <UNDEFINED> instruction: 0x23afebab
7efd5b24:	5f9e17f9 	svcpl	0x009e17f9
7efd5b28:	fdbdabb9 	ldc2	11, cr10, [sp, #740]!	; 0x2e4
7efd5b2c:	5f7df57f 	svcpl	0x007df57f
7efd5b30:	ffe6aeba 			; <UNDEFINED> instruction: 0xffe6aeba
7efd5b34:	cdd7cf7f 	ldclgt	15, cr12, [r7, #508]	; 0x1fc
7efd5b38:	6fbbeefd 	svcvs	0x00bbeefd
7efd5b3c:	56f775dd 	usatpl	r7, #23, sp, asr #11
7efd5b40:	aaafafaa 	bge	0x7dbc19f0
7efd5b44:	5dfdb7d7 	ldclpl	7, cr11, [sp, #860]!	; 0x35c
7efd5b48:	a9aeaaab 	stmibge	lr!, {r0, r1, r3, r5, r7, r9, fp, sp, pc}
7efd5b4c:	5fd58d77 	svcpl	0x00d58d77
7efd5b50:	fefeaf2e 	cdp2	15, 15, cr10, cr14, cr14, {1}
7efd5b54:	77d275de 			; <UNDEFINED> instruction: 0x77d275de
7efd5b58:	ffeb32aa 			; <UNDEFINED> instruction: 0xffeb32aa
7efd5b5c:	1101565a 	tstne	r1, sl, asr r6
7efd5b60:	9affe3bb 	bls	0x7efcea54
7efd5b64:	7f9d7fef 	svcvc	0x009d7fef
7efd5b68:	7b8eed2a 	blvc	0x7d391018
7efd5b6c:	9d5f5777 	ldclls	7, cr5, [pc, #-476]	; 0x7efd5998
7efd5b70:	eeebfabf 	mcr	10, 7, pc, cr11, cr15, {5}	; <UNPREDICTABLE>
7efd5b74:	fdd77775 	ldc2l	7, cr7, [r7, #468]	; 0x1d4
7efd5b78:	aaabfffe 	bge	0x7dad5b78
7efd5b7c:	6ffdfd55 	svcvs	0x00fdfd55
7efd5b80:	9bffbba9 	blls	0x7efc4a2c
7efd5b84:	fcfe1f7d 	ldc2l	15, cr1, [lr], #500	; 0x1f4
7efd5b88:	abeeaaef 	blge	0x7eb8074c
7efd5b8c:	f5f73d7f 			; <UNDEFINED> instruction: 0xf5f73d7f
7efd5b90:	aeeffb2a 	vfmage.f64	d31, d15, d26
7efd5b94:	5d77156f 	cfldr64pl	mvdx1, [r7, #-444]!	; 0xfffffe44
7efd5b98:	ebfbfa3e 	bl	0x7eed4498
7efd5b9c:	7f6fdde5 	svcvc	0x006fdde5
7efd5ba0:	bafa8aba 	blt	0x7ee78690
7efd5ba4:	7dd1fdf7 	ldclvc	13, cr15, [r1, #988]	; 0x3dc
7efd5ba8:	f9aababa 			; <UNDEFINED> instruction: 0xf9aababa
7efd5bac:	5df7ffbf 	ldclpl	15, cr15, [r7, #764]!	; 0x2fc
7efd5bb0:	bae1bfbb 	blt	0x7e845aa4
7efd5bb4:	ff7f5556 			; <UNDEFINED> instruction: 0xff7f5556
7efd5bb8:	e12fabeb 	teq	pc, fp, ror #23
7efd5bbc:	d77f45c1 	ldrble	r4, [pc, -r1, asr #11]!
7efd5bc0:	e7bebaee 	ldr	fp, [lr, lr, ror #21]!
7efd5bc4:	55dfd5fe 	ldrbpl	sp, [pc, #1534]	; 0x7efd61ca
7efd5bc8:	a6afaffb 			; <UNDEFINED> instruction: 0xa6afaffb
7efd5bcc:	57d77fed 	ldrbpl	r7, [r7, sp, ror #31]
7efd5bd0:	eeeaf7ff 	mcr	7, 7, pc, cr10, cr15, {7}	; <UNPREDICTABLE>
7efd5bd4:	b1ffcf7d 	mvnslt	ip, sp, ror pc
7efd5bd8:	0daaebef 	stceq	11, cr14, [sl, #956]!	; 0x3bc
7efd5bdc:	ff3df75d 			; <UNDEFINED> instruction: 0xff3df75d
7efd5be0:	afbafa6b 	svcge	0x00bafa6b
7efd5be4:	cf774767 	svcgt	0x00774767
7efd5be8:	fbbbaea9 	blx	0x7dec1696
7efd5bec:	ed57f573 	cfldr64	mvdx15, [r7, #-460]	; 0xfffffe34
7efd5bf0:	b9feabfb 	ldmiblt	lr!, {r0, r1, r3, r4, r5, r6, r7, r8, r9, fp, sp, pc}^
7efd5bf4:	77fd7df6 			; <UNDEFINED> instruction: 0x77fd7df6
7efd5bf8:	2bf9afef 	blcs	0x7ee41bbc
7efd5bfc:	27d7fff5 			; <UNDEFINED> instruction: 0x27d7fff5
7efd5c00:	ffeabffe 			; <UNDEFINED> instruction: 0xffeabffe
7efd5c04:	57554fb5 			; <UNDEFINED> instruction: 0x57554fb5
7efd5c08:	eaafeafa 	b	0x7dbd07f8
7efd5c0c:	337df79d 	cmncc	sp, #41156608	; 0x2740000
7efd5c10:	fefb7a0d 	cdp2	10, 15, cr7, cr11, cr13, {0}
7efd5c14:	b5f55155 	ldrblt	r5, [r5, #341]!	; 0x155
7efd5c18:	ffaabfae 			; <UNDEFINED> instruction: 0xffaabfae
7efd5c1c:	b75fd5fd 	smmlsrlt	pc, sp, r5, sp	; <UNPREDICTABLE>
7efd5c20:	fab3aaee 	blx	0x7dcc07e0
7efd5c24:	5ffdb5ff 	svcpl	0x00fdb5ff
7efd5c28:	bbbfbafa 	bllt	0x7dfc4818
7efd5c2c:	7f7df777 	svcvc	0x007df777
7efd5c30:	eeaefab9 	mcr	10, 5, pc, cr14, cr9, {5}	; <UNPREDICTABLE>
7efd5c34:	e31bdc5d 	tst	fp, #23808	; 0x5d00
7efd5c38:	2ae6fbfb 	bcs	0x7e994c2c
7efd5c3c:	677d5f5d 			; <UNDEFINED> instruction: 0x677d5f5d
7efd5c40:	bbeaaabb 	bllt	0x7ea80734
7efd5c44:	fa7e577d 	blx	0x80f6ba40
7efd5c48:	eabfeea8 	b	0x7dfd16f0
7efd5c4c:	f7f5deff 			; <UNDEFINED> instruction: 0xf7f5deff
7efd5c50:	cafaedbf 	bgt	0x7ee91354
7efd5c54:	5e7df73d 	mrcpl	7, 3, APSR_nzcv, cr13, cr13, {1}
7efd5c58:	fababbfb 	blx	0x7de84c4c
7efd5c5c:	fdd54747 	ldc2l	7, cr4, [r5, #284]	; 0x11c
7efd5c60:	deffaeba 	mrcle	14, 7, sl, cr15, cr10, {5}
7efd5c64:	53dffdf4 	bicspl	pc, pc, #244, 26	; 0x3d00
7efd5c68:	afbebaaa 	svcge	0x00bebaaa
7efd5c6c:	917ddf57 	cmnls	sp, r7, asr pc
7efd5c70:	eaabbfae 	b	0x7dac5b30
7efd5c74:	7f97d5d7 	svcvc	0x0097d5d7
7efd5c78:	fa83caba 	blx	0x7d0c8768
7efd5c7c:	dfd53d9c 	svcle	0x00d53d9c
7efd5c80:	fefafbba 	mrc2	11, 7, pc, cr10, cr10, {5}
7efd5c84:	bdd5b5ff 	cfldr64lt	mvdx11, [r5, #1020]	; 0x3fc
7efd5c88:	e8bb2abb 	ldm	fp!, {r0, r1, r3, r4, r5, r7, r9, fp, sp}
7efd5c8c:	7fdd7d95 	svcvc	0x00dd7d95
7efd5c90:	eabaf6ee 	b	0x7de93850
7efd5c94:	7df7f47e 	cfldrdvc	mvd15, [r7, #504]!	; 0x1f8
7efd5c98:	bbfaf92a 	bllt	0x7ee94148
7efd5c9c:	555effe5 	ldrbpl	pc, [lr, #-4069]	; 0xfe5	; <UNPREDICTABLE>
7efd5ca0:	68ceb6fb 	stmiavs	lr, {r0, r1, r3, r4, r5, r6, r7, r9, sl, ip, sp, pc}^
7efd5ca4:	57de75ff 			; <UNDEFINED> instruction: 0x57de75ff
7efd5ca8:	faa6ff2e 	blx	0x7d995968
7efd5cac:	757f5f3c 	ldrbvc	r5, [pc, #-3900]!	; 0x7efd4d78
7efd5cb0:	bbde1b2a 	bllt	0x7e75c960
7efd5cb4:	bf4f77ef 	svclt	0x004f77ef
7efd5cb8:	6ea8a6a2 	cdpvs	6, 10, cr10, cr8, cr2, {5}
7efd5cbc:	fdfdf775 	ldc2l	7, cr15, [sp, #468]!	; 0x1d4
7efd5cc0:	ba6aa3ba 	blt	0x80a7ebb0
7efd5cc4:	77dff72f 	ldrbvc	pc, [pc, pc, lsr #14]	; <UNPREDICTABLE>
7efd5cc8:	bbaeaaaa 	bllt	0x7db80778
7efd5ccc:	ff67e55f 			; <UNDEFINED> instruction: 0xff67e55f
7efd5cd0:	9eaebebe 	mcrls	14, 5, fp, cr14, cr14, {5}
7efd5cd4:	5cd775f5 	cfldr64pl	mvdx7, [r7], {245}	; 0xf5
7efd5cd8:	b9eb8aeb 	stmiblt	fp!, {r0, r1, r3, r5, r6, r7, r9, fp, pc}^
7efd5cdc:	75bdf55f 	ldrvc	pc, [sp, #1375]!	; 0x55f
7efd5ce0:	be3aa2ef 	cdplt	2, 3, cr10, cr10, cr15, {7}
7efd5ce4:	575fdd57 			; <UNDEFINED> instruction: 0x575fdd57
7efd5ce8:	baef2bbe 	blt	0x7eba0be8
7efd5cec:	9d6dfffc 	stclls	15, cr15, [sp, #-1008]!	; 0xfffffc10
7efd5cf0:	e9abefab 	stmib	fp!, {r0, r1, r3, r5, r7, r8, r9, sl, fp, sp, lr, pc}
7efd5cf4:	fbcdd557 	blx	0x7e34b25a
7efd5cf8:	be6b2abf 	mcrlt	10, 3, r2, cr11, cr15, {5}
7efd5cfc:	f9ff79d5 			; <UNDEFINED> instruction: 0xf9ff79d5
7efd5d00:	efabe2ae 	svc	0x00abe2ae
7efd5d04:	fdf7f57f 	ldc2l	5, cr15, [r7, #508]!	; 0x1fc
7efd5d08:	dbfefbae 	blle	0x7ef94bc8
7efd5d0c:	f74f7ffd 			; <UNDEFINED> instruction: 0xf74f7ffd
7efd5d10:	efafffae 	svc	0x00afffae
7efd5d14:	d51d5557 	ldrle	r5, [sp, #-1367]	; 0x557
7efd5d18:	ef3aff6e 	svc	0x003aff6e
7efd5d1c:	d5fe7d5d 	ldrble	r7, [lr, #3421]!	; 0xd5d
7efd5d20:	abb1feab 	blge	0x7dc557d4
7efd5d24:	7f7c5cf7 	svcvc	0x007c5cf7
7efd5d28:	aeeebbfb 	mcrge	11, 7, fp, cr14, cr11, {7}
7efd5d2c:	f75dd775 			; <UNDEFINED> instruction: 0xf75dd775
7efd5d30:	a7eaebba 			; <UNDEFINED> instruction: 0xa7eaebba
7efd5d34:	6ff75f77 	svcvs	0x00f75f77
7efd5d38:	fbefabfa 	blx	0x7ebc0d2a
7efd5d3c:	7f73f575 	svcvc	0x0073f575
7efd5d40:	efeaeaff 	svc	0x00eaeaff
7efd5d44:	f7ff715f 			; <UNDEFINED> instruction: 0xf7ff715f
7efd5d48:	be8eeaaa 	vdivlt.f32	s28, s29, s21
7efd5d4c:	ff65fff6 			; <UNDEFINED> instruction: 0xff65fff6
7efd5d50:	eaaebbee 	b	0x7db84d10
7efd5d54:	7e77759d 	mrcvc	5, 3, r7, cr7, cr13, {4}
7efd5d58:	afeedca2 	svcge	0x00eedca2
7efd5d5c:	7ffa7755 	svcvc	0x00fa7755
7efd5d60:	a54faefb 	strbge	sl, [pc, #-3835]	; 0x7efd4e6d
7efd5d64:	cfffaf5d 	svcgt	0x00ffaf5d
7efd5d68:	a7bbaaec 	ldrge	sl, [fp, ip, ror #21]!
7efd5d6c:	ff3fcc7e 			; <UNDEFINED> instruction: 0xff3fcc7e
7efd5d70:	bafecbfb 	blt	0x7ef88d64
7efd5d74:	f9375fdf 			; <UNDEFINED> instruction: 0xf9375fdf
7efd5d78:	abfff99e 	blge	0x7efd43f8
7efd5d7c:	1fe2ddd7 	svcne	0x00e2ddd7
7efd5d80:	fbdf6aae 	blx	0x7e7b0842
7efd5d84:	cdff7f77 	ldclgt	15, cr7, [pc, #476]!	; 0x7efd5f68
7efd5d88:	feabeaff 	mcr2	10, 5, lr, cr11, cr15, {7}
7efd5d8c:	e1ddf55d 	bics	pc, sp, sp, asr r5	; <UNPREDICTABLE>
7efd5d90:	8faaebef 	svchi	0x00aaebef
7efd5d94:	7c37197b 	ldcvc	9, cr1, [r7], #-492	; 0xfffffe14
7efd5d98:	ebfafbfa 	bl	0x7ee94d88
7efd5d9c:	5f1d7fd7 	svcpl	0x001d7fd7
7efd5da0:	8fffabba 	svchi	0x00ffabba
7efd5da4:	57fdf7b4 			; <UNDEFINED> instruction: 0x57fdf7b4
7efd5da8:	fa9faefa 	blx	0x7d7c1998
7efd5dac:	f675dc54 			; <UNDEFINED> instruction: 0xf675dc54
7efd5db0:	8af9ebef 	bhi	0x7ee50d74
7efd5db4:	79537655 	ldmdbvc	r3, {r0, r2, r4, r6, r9, sl, ip, sp, lr}^
7efd5db8:	abbeaefa 	blge	0x7df819a8
7efd5dbc:	f7d973d1 			; <UNDEFINED> instruction: 0xf7d973d1
7efd5dc0:	abbaaae2 	blge	0x7de80950
7efd5dc4:	576755f7 			; <UNDEFINED> instruction: 0x576755f7
7efd5dc8:	ebaacaea 	bl	0x7da88978
7efd5dcc:	d593fd5f 	ldrle	pc, [r3, #3423]	; 0xd5f
7efd5dd0:	e9bfeaae 	ldmib	pc!, {r1, r2, r3, r5, r7, r9, fp, sp, lr, pc}	; <UNPREDICTABLE>
7efd5dd4:	f7def7ff 	pld	[lr, pc	; <illegal shifter operand>]
7efd5dd8:	beee9bbf 	mcrlt	11, 7, r9, cr14, cr15, {5}
7efd5ddc:	db1d7df7 	blle	0x7f7355c0
7efd5de0:	aeeeeabb 	mcrge	10, 7, lr, cr14, cr11, {5}
7efd5de4:	ddfdf57f 	cfldr64le	mvdx15, [sp, #508]!	; 0x1fc
7efd5de8:	abaefbeb 	blge	0x7db94d9c
7efd5dec:	e715b7f5 			; <UNDEFINED> instruction: 0xe715b7f5
7efd5df0:	faeebfac 	blx	0x7eb85ca8
7efd5df4:	7bdfdf55 	blvc	0x7e7cdb50
7efd5df8:	b9aeaeff 	stmiblt	lr!, {r0, r1, r2, r3, r4, r5, r6, r7, r9, sl, fp, sp, pc}
7efd5dfc:	ff567f77 			; <UNDEFINED> instruction: 0xff567f77
7efd5e00:	bebaeaef 	vcvtlt.f32.s32	s28, s28, #1
7efd5e04:	d57557ff 	ldrble	r5, [r5, #-2047]!	; 0x7ff
7efd5e08:	bba8bfe8 	bllt	0x7da05db0
7efd5e0c:	e77ff4e5 	ldrb	pc, [pc, -r5, ror #9]!	; <UNPREDICTABLE>
7efd5e10:	aeee3bbe 	mcrge	11, 7, r3, cr14, cr14, {5}
7efd5e14:	766f5def 	strbtvc	r5, [pc], -pc, ror #27
7efd5e18:	eaab1aab 	b	0x7da9c8cc
7efd5e1c:	7f77ff5c 	svcvc	0x0077ff5c
7efd5e20:	de7bebea 	vsuble.f64	d30, d27, d26
7efd5e24:	fdffff7e 	ldc2l	15, cr15, [pc, #504]!	; 0x7efd6024
7efd5e28:	aaa3aeef 	bge	0x7d8c19ec
7efd5e2c:	3577df7d 	ldrbcc	sp, [r7, #-3965]!	; 0xf7d
7efd5e30:	ebeaba66 	bl	0x7ea847d0
7efd5e34:	5ff1d4d5 	svcpl	0x00f1d4d5
7efd5e38:	abef8f23 	blge	0x7ebb9acc
7efd5e3c:	5df5dfff 	ldclpl	15, cr13, [r5, #1020]!	; 0x3fc
7efd5e40:	bfabaafa 	svclt	0x00abaafa
7efd5e44:	77f7ddbc 			; <UNDEFINED> instruction: 0x77f7ddbc
7efd5e48:	7af8bbaa 	bvc	0x7ee04cf8
7efd5e4c:	ffd7fe76 			; <UNDEFINED> instruction: 0xffd7fe76
7efd5e50:	dee9aafb 	mcrle	10, 7, sl, cr9, cr11, {7}
7efd5e54:	afe75645 	svcge	0x00e75645
7efd5e58:	fbb6aeff 	blx	0x7dd81a5e
7efd5e5c:	4d7d5577 	cfldr64mi	mvdx5, [sp, #-476]!	; 0xfffffe24
7efd5e60:	c8baaaab 	ldmgt	sl!, {r0, r1, r3, r5, r7, r9, fp, sp, pc}
7efd5e64:	fdff60ff 	ldc2l	0, cr6, [pc, #1020]!	; 0x7efd6268
7efd5e68:	2ba2a97a 	blcs	0x7d880458
7efd5e6c:	df9ffdd7 	svcle	0x009ffdd7
7efd5e70:	9feabaaf 	svcls	0x00eabaaf
7efd5e74:	f775b55a 			; <UNDEFINED> instruction: 0xf775b55a
7efd5e78:	bbac7afb 	bllt	0x7daf4a6c
7efd5e7c:	5d755f7a 	ldclpl	15, cr5, [r5, #-488]!	; 0xfffffe18
7efd5e80:	baaefbfa 	blt	0x7db94e70
7efd5e84:	ff55ffdb 			; <UNDEFINED> instruction: 0xff55ffdb
7efd5e88:	afafefa2 	svcge	0x00afefa2
7efd5e8c:	dbbef475 	blle	0x7df93068
7efd5e90:	f2b2ffea 	vext.8	<illegal reg q7.5>, q9, q13, #15
7efd5e94:	f7e1def1 			; <UNDEFINED> instruction: 0xf7e1def1
7efd5e98:	fbeafaeb 	blx	0x7ea94a4e
7efd5e9c:	d7fffff7 			; <UNDEFINED> instruction: 0xd7fffff7
7efd5ea0:	fe3bbebd 	mrc2	14, 1, fp, cr11, cr13, {5}
7efd5ea4:	ff3bf1df 			; <UNDEFINED> instruction: 0xff3bf1df
7efd5ea8:	6f0ae3ff 	svcvs	0x000ae3ff
7efd5eac:	55b7e77c 	ldrpl	lr, [r7, #1916]!	; 0x77c
7efd5eb0:	bbe9eabe 	bllt	0x7ea509b0
7efd5eb4:	fbf4f5d7 	blx	0x7ed1361a
7efd5eb8:	aefedeca 	cdpge	14, 15, cr13, cr14, cr10, {6}
7efd5ebc:	f7f4c764 			; <UNDEFINED> instruction: 0xf7f4c764
7efd5ec0:	b77f8fbf 			; <UNDEFINED> instruction: 0xb77f8fbf
7efd5ec4:	74566c6f 	ldrbvc	r6, [r6], #-3183	; 0xc6f
7efd5ec8:	aaa0aaaf 	bge	0x7d80098c
7efd5ecc:	d7f55f7d 			; <UNDEFINED> instruction: 0xd7f55f7d
7efd5ed0:	be8bfafb 	mcrlt	10, 4, pc, cr11, cr11, {7}	; <UNPREDICTABLE>
7efd5ed4:	455795f9 	ldrbmi	r9, [r7, #-1529]	; 0x5f9
7efd5ed8:	babbbeaf 	blt	0x7dec599c
7efd5edc:	f655fdfd 	pli	[r5, -sp	; <illegal shifter operand>]
7efd5ee0:	abfbeeaa 	blge	0x7eed1990
7efd5ee4:	5f5bb557 	svcpl	0x005bb557
7efd5ee8:	efafbabb 	svc	0x00afbabb
7efd5eec:	df55f7d5 	svcle	0x0055f7d5
7efd5ef0:	abaebaae 	blge	0x7db849b0
7efd5ef4:	c19d2ffb 			; <UNDEFINED> instruction: 0xc19d2ffb
7efd5ef8:	eabbfbed 	b	0x7ded4eb4
7efd5efc:	3dfe7d75 	ldclcc	13, cr7, [lr, #468]!	; 0x1d4
7efd5f00:	aaabaaba 	bge	0x7dac09f0
7efd5f04:	d77f5f57 			; <UNDEFINED> instruction: 0xd77f5f57
7efd5f08:	b3b7aa6b 			; <UNDEFINED> instruction: 0xb3b7aa6b
7efd5f0c:	a16ddddd 	ldrdge	sp, [sp, #-221]!	; 0xffffff23
7efd5f10:	fbaea6ab 	blx	0x7db7f9c6
7efd5f14:	5f9fd17f 	svcpl	0x009fd17f
7efd5f18:	abae97af 	blge	0x7db7bddc
7efd5f1c:	791cfd97 	ldmdbvc	ip, {r0, r1, r2, r4, r7, r8, sl, fp, ip, sp, lr, pc}
7efd5f20:	adfcabea 	ldclge	11, cr10, [ip, #936]!	; 0x3a8
7efd5f24:	c5fdf1ce 	ldrbgt	pc, [sp, #462]!	; 0x1ce	; <UNPREDICTABLE>
7efd5f28:	fbeaabab 	blx	0x7ea80dde
7efd5f2c:	7f5b7677 	svcvc	0x005b7677
7efd5f30:	9fbf3e2a 	svcls	0x00bf3e2a
7efd5f34:	5dfffffd 	ldclpl	15, cr15, [pc, #1012]!	; 0x7efd6330
7efd5f38:	7bfaeab8 	blvc	0x7ee90a20
7efd5f3c:	d5f5fd5d 	ldrble	pc, [r5, #3421]!	; 0xd5d	; <UNPREDICTABLE>
7efd5f40:	fefeceaa 	cdp2	14, 15, cr12, cr14, cr10, {5}
7efd5f44:	f37f77df 	vaba.u<illegal width 64>	<illegal reg q11.5>, <illegal reg q15.5>, <illegal reg q7.5>
7efd5f48:	eeae8bab 	vfma.f64	d8, d30, d27
7efd5f4c:	5dd75fff 	ldclpl	15, cr5, [r7, #1020]	; 0x3fc
7efd5f50:	fae3a2aa 	blx	0x7e8bea00
7efd5f54:	ffff9763 			; <UNDEFINED> instruction: 0xffff9763
7efd5f58:	ae7f8feb 	cdpge	15, 7, cr8, cr15, cr11, {7}
7efd5f5c:	75def735 	ldrbvc	pc, [lr, #1845]	; 0x735	; <UNPREDICTABLE>
7efd5f60:	fa7fba2e 	blx	0x80fc4820
7efd5f64:	edf7757f 	cfldr64	mvdx7, [r7, #508]!	; 0x1fc
7efd5f68:	bbbeabee 	bllt	0x7df80f28
7efd5f6c:	d57df57f 	ldrble	pc, [sp, #-1407]!	; 0x57f	; <UNPREDICTABLE>
7efd5f70:	fdabeeee 	stc2	14, cr14, [fp, #952]!	; 0x3b8
7efd5f74:	7d725d57 	ldclvc	13, cr5, [r2, #-348]!	; 0xfffffea4
7efd5f78:	aebffefe 	mrcge	14, 5, APSR_nzcv, cr15, cr14, {7}
7efd5f7c:	f5d5b75d 			; <UNDEFINED> instruction: 0xf5d5b75d
7efd5f80:	f908a3bc 			; <UNDEFINED> instruction: 0xf908a3bc
7efd5f84:	7f86f525 	svcvc	0x0086f525
7efd5f88:	feb7abee 	cdp2	11, 11, cr10, cr7, cr14, {7}
7efd5f8c:	75fedef2 	ldrbvc	sp, [lr, #3826]!	; 0xef2
7efd5f90:	a6eabaeb 	strbtge	fp, [sl], fp, ror #21
7efd5f94:	dfdf5ff7 	svcle	0x00df5ff7
7efd5f98:	eaaeebfb 	b	0x7db90f8c
7efd5f9c:	f5775b7d 			; <UNDEFINED> instruction: 0xf5775b7d
7efd5fa0:	bfeaef9e 	svclt	0x00eaef9e
7efd5fa4:	d7fd471f 			; <UNDEFINED> instruction: 0xd7fd471f
7efd5fa8:	6bcfa88a 	blvs	0x7e3c01d8
7efd5fac:	356cdf7f 	strbcc	sp, [ip, #-3967]!	; 0xf7f
7efd5fb0:	efbefaef 	svc	0x00befaef
7efd5fb4:	75f7d54f 	ldrbvc	sp, [r7, #1359]!	; 0x54f
7efd5fb8:	faacaaff 	blx	0x7db00bbc
7efd5fbc:	d7de47b5 			; <UNDEFINED> instruction: 0xd7de47b5
7efd5fc0:	afaefbfe 	svcge	0x00aefbfe
7efd5fc4:	fff7d554 			; <UNDEFINED> instruction: 0xfff7d554
7efd5fc8:	eaeaeffb 	b	0x7ea91fbc
7efd5fcc:	b7b75e57 	sbfxlt	r5, r7, #28, #24
7efd5fd0:	bebbb3fe 	mrclt	3, 5, fp, cr11, cr14, {7}
7efd5fd4:	ddd57796 	ldclle	7, cr7, [r5, #600]	; 0x258
7efd5fd8:	f1fe7fab 			; <UNDEFINED> instruction: 0xf1fe7fab
7efd5fdc:	f784f37f 			; <UNDEFINED> instruction: 0xf784f37f
7efd5fe0:	ba3ebbfb 	blt	0x7ff84fd4
7efd5fe4:	bd7fd7f5 	ldcllt	7, cr13, [pc, #-980]!	; 0x7efd5c18
7efd5fe8:	ceb3aa2e 	cdpgt	10, 11, cr10, cr3, cr14, {1}
7efd5fec:	77ddf5f7 			; <UNDEFINED> instruction: 0x77ddf5f7
7efd5ff0:	ebfbbbab 	bl	0x7eec4ea4
7efd5ff4:	b9fd7d6b 	ldmiblt	sp!, {r0, r1, r3, r5, r6, r8, sl, fp, ip, sp, lr}^
7efd5ff8:	bebfaab9 	mrclt	10, 5, sl, cr15, cr9, {5}
7efd5ffc:	d5bfddb8 	ldrle	sp, [pc, #3512]!	; 0x7efd6dbc

Disassembly of section load15:

7efd7000 <load15>:
7efd7000:	464c457f 			; <UNDEFINED> instruction: 0x464c457f
7efd7004:	00010101 	andeq	r0, r1, r1, lsl #2
	...
7efd7010:	00280003 	eoreq	r0, r8, r3
7efd7014:	00000001 	andeq	r0, r0, r1
7efd7018:	000002a0 	andeq	r0, r0, r0, lsr #5
7efd701c:	00000034 	andeq	r0, r0, r4, lsr r0
7efd7020:	000007c4 	andeq	r0, r0, r4, asr #15
7efd7024:	05000002 	streq	r0, [r0, #-2]
7efd7028:	00200034 	eoreq	r0, r0, r4, lsr r0
7efd702c:	00280005 	eoreq	r0, r8, r5
7efd7030:	000d000e 	andeq	r0, sp, lr
7efd7034:	70000001 	andvc	r0, r0, r1
7efd7038:	00000278 	andeq	r0, r0, r8, ror r2
7efd703c:	00000278 	andeq	r0, r0, r8, ror r2
7efd7040:	00000278 	andeq	r0, r0, r8, ror r2
7efd7044:	00000028 	andeq	r0, r0, r8, lsr #32
7efd7048:	00000028 	andeq	r0, r0, r8, lsr #32
7efd704c:	00000004 	andeq	r0, r0, r4
7efd7050:	00000004 	andeq	r0, r0, r4
7efd7054:	00000001 	andeq	r0, r0, r1
	...
7efd7064:	000006f0 	strdeq	r0, [r0], -r0	; <UNPREDICTABLE>
7efd7068:	000006f0 	strdeq	r0, [r0], -r0	; <UNPREDICTABLE>
7efd706c:	00000005 	andeq	r0, r0, r5
7efd7070:	00001000 	andeq	r1, r0, r0
7efd7074:	00000002 	andeq	r0, r0, r2
7efd7078:	000001f8 	strdeq	r0, [r0], -r8
7efd707c:	000001f8 	strdeq	r0, [r0], -r8
7efd7080:	000001f8 	strdeq	r0, [r0], -r8
7efd7084:	00000080 	andeq	r0, r0, r0, lsl #1
7efd7088:	00000080 	andeq	r0, r0, r0, lsl #1
7efd708c:	00000004 	andeq	r0, r0, r4
7efd7090:	00000004 	andeq	r0, r0, r4
7efd7094:	00000004 	andeq	r0, r0, r4
7efd7098:	000001d4 	ldrdeq	r0, [r0], -r4
7efd709c:	000001d4 	ldrdeq	r0, [r0], -r4
7efd70a0:	000001d4 	ldrdeq	r0, [r0], -r4
7efd70a4:	00000024 	andeq	r0, r0, r4, lsr #32
7efd70a8:	00000024 	andeq	r0, r0, r4, lsr #32
7efd70ac:	00000004 	andeq	r0, r0, r4
7efd70b0:	00000004 	andeq	r0, r0, r4
7efd70b4:	6474e550 	ldrbtvs	lr, [r4], #-1360	; 0x550
	...
7efd70d0:	00000004 	andeq	r0, r0, r4
7efd70d4:	00000003 	andeq	r0, r0, r3
7efd70d8:	00000005 	andeq	r0, r0, r5
7efd70dc:	00000003 	andeq	r0, r0, r3
7efd70e0:	00000000 	andeq	r0, r0, r0
7efd70e4:	00000004 	andeq	r0, r0, r4
	...
7efd70f4:	00000002 	andeq	r0, r0, r2
	...
7efd7110:	000002a0 	andeq	r0, r0, r0, lsr #5
7efd7114:	00000000 	andeq	r0, r0, r0
7efd7118:	00090003 	andeq	r0, r9, r3
7efd711c:	0000003a 	andeq	r0, r0, sl, lsr r0
	...
7efd7128:	fff10011 			; <UNDEFINED> instruction: 0xfff10011
7efd712c:	00000000 	andeq	r0, r0, r0
7efd7130:	00000630 	andeq	r0, r0, r0, lsr r6
7efd7134:	00000094 	muleq	r0, r4, r0
7efd7138:	00090012 	andeq	r0, r9, r2, lsl r0
7efd713c:	00000000 	andeq	r0, r0, r0
7efd7140:	000003a0 	andeq	r0, r0, r0, lsr #7
7efd7144:	00000290 	muleq	r0, r0, r2
7efd7148:	00090012 	andeq	r0, r9, r2, lsl r0
7efd714c:	765f5f00 	ldrbvc	r5, [pc], -r0, lsl #30
7efd7150:	5f6f7364 	svcpl	0x006f7364
7efd7154:	636f6c63 	cmnvs	pc, #25344	; 0x6300
7efd7158:	65675f6b 	strbvs	r5, [r7, #-3947]!	; 0xf6b
7efd715c:	6d697474 	cfstrdvs	mvd7, [r9, #-464]!	; 0xfffffe30
7efd7160:	5f5f0065 	svcpl	0x005f0065
7efd7164:	6f736476 	svcvs	0x00736476
7efd7168:	7465675f 	strbtvc	r6, [r5], #-1887	; 0x75f
7efd716c:	656d6974 	strbvs	r6, [sp, #-2420]!	; 0x974
7efd7170:	6164666f 	cmnvs	r4, pc, ror #12
7efd7174:	696c0079 	stmdbvs	ip!, {r0, r3, r4, r5, r6}^
7efd7178:	2d78756e 	cfldr64cs	mvdx7, [r8, #-440]!	; 0xfffffe48
7efd717c:	6f736476 	svcvs	0x00736476
7efd7180:	2e6f732e 	cdpcs	3, 6, cr7, cr15, cr14, {1}
7efd7184:	494c0031 	stmdbmi	ip, {r0, r4, r5}^
7efd7188:	5f58554e 	svcpl	0x0058554e
7efd718c:	00362e32 	eorseq	r2, r6, r2, lsr lr
7efd7190:	00000000 	andeq	r0, r0, r0
7efd7194:	00020002 	andeq	r0, r2, r2
7efd7198:	00000002 	andeq	r0, r0, r2
7efd719c:	00010001 	andeq	r0, r1, r1
7efd71a0:	00010001 	andeq	r0, r1, r1
7efd71a4:	0deebfa1 	stcleq	15, cr11, [lr, #644]!	; 0x284
7efd71a8:	00000014 	andeq	r0, r0, r4, lsl r0
7efd71ac:	0000001c 	andeq	r0, r0, ip, lsl r0
7efd71b0:	0000002a 	andeq	r0, r0, sl, lsr #32
7efd71b4:	00000000 	andeq	r0, r0, r0
7efd71b8:	00000001 	andeq	r0, r0, r1
7efd71bc:	00010002 	andeq	r0, r1, r2
7efd71c0:	03ae75f6 			; <UNDEFINED> instruction: 0x03ae75f6
7efd71c4:	00000014 	andeq	r0, r0, r4, lsl r0
7efd71c8:	00000000 	andeq	r0, r0, r0
7efd71cc:	0000003a 	andeq	r0, r0, sl, lsr r0
7efd71d0:	00000000 	andeq	r0, r0, r0
7efd71d4:	00000004 	andeq	r0, r0, r4
7efd71d8:	00000014 	andeq	r0, r0, r4, lsl r0
7efd71dc:	00000003 	andeq	r0, r0, r3
7efd71e0:	00554e47 	subseq	r4, r5, r7, asr #28
7efd71e4:	68064d29 	stmdavs	r6, {r0, r3, r5, r8, sl, fp, lr}
7efd71e8:	25d813f0 	ldrbcs	r1, [r8, #1008]	; 0x3f0
7efd71ec:	9a3bf38e 	bls	0x7fed402c
7efd71f0:	16b48f96 	ssatne	r8, #21, r6, lsl #31
7efd71f4:	9adc198e 	bls	0x7e6dd834
7efd71f8:	0000000e 	andeq	r0, r0, lr
7efd71fc:	0000002a 	andeq	r0, r0, sl, lsr #32
7efd7200:	00000010 	andeq	r0, r0, r0, lsl r0
7efd7204:	00000000 	andeq	r0, r0, r0
7efd7208:	00000004 	andeq	r0, r0, r4
7efd720c:	000000d4 	ldrdeq	r0, [r0], -r4
7efd7210:	00000005 	andeq	r0, r0, r5
7efd7214:	0000014c 	andeq	r0, r0, ip, asr #2
7efd7218:	00000006 	andeq	r0, r0, r6
7efd721c:	000000fc 	strdeq	r0, [r0], -ip
7efd7220:	0000000a 	andeq	r0, r0, sl
7efd7224:	00000044 	andeq	r0, r0, r4, asr #32
7efd7228:	0000000b 	andeq	r0, r0, fp
7efd722c:	00000010 	andeq	r0, r0, r0, lsl r0
7efd7230:	6ffffffc 	svcvs	0x00fffffc
7efd7234:	0000019c 	muleq	r0, ip, r1
7efd7238:	6ffffffd 	svcvs	0x00fffffd
7efd723c:	00000002 	andeq	r0, r0, r2
7efd7240:	6ffffff0 	svcvs	0x00fffff0
7efd7244:	00000190 	muleq	r0, r0, r1
	...
7efd7278:	00000028 	andeq	r0, r0, r8, lsr #32
7efd727c:	80afb0b0 	strhthi	fp, [pc], r0
7efd7280:	00000120 	andeq	r0, r0, r0, lsr #2
7efd7284:	8004afb0 			; <UNDEFINED> instruction: 0x8004afb0
7efd7288:	000003a8 	andeq	r0, r0, r8, lsr #7
7efd728c:	8002abb0 			; <UNDEFINED> instruction: 0x8002abb0
7efd7290:	00000434 	andeq	r0, r0, r4, lsr r4
7efd7294:	80b0b0b0 	ldrhthi	fp, [r0], r0
7efd7298:	0000044c 	andeq	r0, r0, ip, asr #8
7efd729c:	00000001 	andeq	r0, r0, r1
7efd72a0:	e92d4ff0 	push	{r4, r5, r6, r7, r8, r9, sl, fp, lr}
7efd72a4:	eaffffff 	b	0x7efd72a8
7efd72a8:	e591a000 	ldr	sl, [r1]
7efd72ac:	e31a0001 	tst	sl, #1
7efd72b0:	1afffffc 	bne	0x7efd72a8
7efd72b4:	f57ff05b 	dmb	ish
7efd72b8:	e1d130b4 	ldrh	r3, [r1, #4]
7efd72bc:	e3530000 	cmp	r3, #0
7efd72c0:	0a000031 	beq	0x7efd738c
7efd72c4:	e5913018 	ldr	r3, [r1, #24]
7efd72c8:	e5803000 	str	r3, [r0]
7efd72cc:	f57ff06f 	isb	sy
7efd72d0:	ec576f1e 	mrrc	15, 1, r6, r7, cr14
7efd72d4:	e1c122d0 	ldrd	r2, [r1, #32]
7efd72d8:	e1c142d8 	ldrd	r4, [r1, #40]	; 0x28
7efd72dc:	e591e01c 	ldr	lr, [r1, #28]
7efd72e0:	e1c183d0 	ldrd	r8, [r1, #48]	; 0x30
7efd72e4:	e1d1c0b6 	ldrh	ip, [r1, #6]
7efd72e8:	f57ff05b 	dmb	ish
7efd72ec:	e591b000 	ldr	fp, [r1]
7efd72f0:	e15b000a 	cmp	fp, sl
7efd72f4:	1affffeb 	bne	0x7efd72a8
7efd72f8:	e0566002 	subs	r6, r6, r2
7efd72fc:	e26c1020 	rsb	r1, ip, #32
7efd7300:	e0c77003 	sbc	r7, r7, r3
7efd7304:	e0066004 	and	r6, r6, r4
7efd7308:	e0077005 	and	r7, r7, r5
7efd730c:	e0854e96 	umull	r4, r5, r6, lr
7efd7310:	e24c6020 	sub	r6, ip, #32
7efd7314:	e30ca9ff 	movw	sl, #51711	; 0xc9ff
7efd7318:	e3a0b000 	mov	fp, #0
7efd731c:	e343ab9a 	movt	sl, #15258	; 0x3b9a
7efd7320:	e025579e 	mla	r5, lr, r7, r5
7efd7324:	e0944008 	adds	r4, r4, r8
7efd7328:	e1a02c34 	lsr	r2, r4, ip
7efd732c:	e0a55009 	adc	r5, r5, r9
7efd7330:	e1822115 	orr	r2, r2, r5, lsl r1
7efd7334:	e1a03c35 	lsr	r3, r5, ip
7efd7338:	e1822635 	orr	r2, r2, r5, lsr r6
7efd733c:	e153000b 	cmp	r3, fp
7efd7340:	0152000a 	cmpeq	r2, sl
7efd7344:	9a000013 	bls	0x7efd7398
7efd7348:	e3a04c36 	mov	r4, #13824	; 0x3600
7efd734c:	e3e05000 	mvn	r5, #0
7efd7350:	e34c4465 	movt	r4, #50277	; 0xc465
7efd7354:	e3a01000 	mov	r1, #0
7efd7358:	e0922004 	adds	r2, r2, r4
7efd735c:	e2811001 	add	r1, r1, #1
7efd7360:	e0a33005 	adc	r3, r3, r5
7efd7364:	e153000b 	cmp	r3, fp
7efd7368:	0152000a 	cmpeq	r2, sl
7efd736c:	8afffff9 	bhi	0x7efd7358
7efd7370:	e590c000 	ldr	ip, [r0]
7efd7374:	e3a03000 	mov	r3, #0
7efd7378:	e5802004 	str	r2, [r0, #4]
7efd737c:	e08c1001 	add	r1, ip, r1
7efd7380:	e5801000 	str	r1, [r0]
7efd7384:	e1a00003 	mov	r0, r3
7efd7388:	e8bd8ff0 	pop	{r4, r5, r6, r7, r8, r9, sl, fp, pc}
7efd738c:	e3e03000 	mvn	r3, #0
7efd7390:	e1a00003 	mov	r0, r3
7efd7394:	e8bd8ff0 	pop	{r4, r5, r6, r7, r8, r9, sl, fp, pc}
7efd7398:	e3a01000 	mov	r1, #0
7efd739c:	eafffff3 	b	0x7efd7370
7efd73a0:	e92d4ff0 	push	{r4, r5, r6, r7, r8, r9, sl, fp, lr}
7efd73a4:	e1a05000 	mov	r5, r0
7efd73a8:	e24dd014 	sub	sp, sp, #20
7efd73ac:	e1a04001 	mov	r4, r1
7efd73b0:	eb0000c7 	bl	0x7efd76d4
7efd73b4:	e3550006 	cmp	r5, #6
7efd73b8:	908ff105 	addls	pc, pc, r5, lsl #2
7efd73bc:	ea000045 	b	0x7efd74d8
7efd73c0:	ea00003f 	b	0x7efd74c4
7efd73c4:	ea000049 	b	0x7efd74f0
7efd73c8:	ea000042 	b	0x7efd74d8
7efd73cc:	ea000041 	b	0x7efd74d8
7efd73d0:	ea000040 	b	0x7efd74d8
7efd73d4:	ea000000 	b	0x7efd73dc
7efd73d8:	ea00000e 	b	0x7efd7418
7efd73dc:	e5903000 	ldr	r3, [r0]
7efd73e0:	e3130001 	tst	r3, #1
7efd73e4:	1afffffc 	bne	0x7efd73dc
7efd73e8:	f57ff05b 	dmb	ish
7efd73ec:	e5902008 	ldr	r2, [r0, #8]
7efd73f0:	e5842000 	str	r2, [r4]
7efd73f4:	e590200c 	ldr	r2, [r0, #12]
7efd73f8:	e5842004 	str	r2, [r4, #4]
7efd73fc:	f57ff05b 	dmb	ish
7efd7400:	e5902000 	ldr	r2, [r0]
7efd7404:	e1520003 	cmp	r2, r3
7efd7408:	1afffff3 	bne	0x7efd73dc
7efd740c:	e3a00000 	mov	r0, #0
7efd7410:	e28dd014 	add	sp, sp, #20
7efd7414:	e8bd8ff0 	pop	{r4, r5, r6, r7, r8, r9, sl, fp, pc}
7efd7418:	e5903000 	ldr	r3, [r0]
7efd741c:	e3130001 	tst	r3, #1
7efd7420:	1afffffc 	bne	0x7efd7418
7efd7424:	f57ff05b 	dmb	ish
7efd7428:	e5902008 	ldr	r2, [r0, #8]
7efd742c:	e5842000 	str	r2, [r4]
7efd7430:	e590200c 	ldr	r2, [r0, #12]
7efd7434:	e5842004 	str	r2, [r4, #4]
7efd7438:	e5901010 	ldr	r1, [r0, #16]
7efd743c:	e5905014 	ldr	r5, [r0, #20]
7efd7440:	f57ff05b 	dmb	ish
7efd7444:	e5902000 	ldr	r2, [r0]
7efd7448:	e1530002 	cmp	r3, r2
7efd744c:	1afffff1 	bne	0x7efd7418
7efd7450:	e5942004 	ldr	r2, [r4, #4]
7efd7454:	e30c89ff 	movw	r8, #51711	; 0xc9ff
7efd7458:	e3a09000 	mov	r9, #0
7efd745c:	e3438b9a 	movt	r8, #15258	; 0x3b9a
7efd7460:	e594c000 	ldr	ip, [r4]
7efd7464:	e1a03fc2 	asr	r3, r2, #31
7efd7468:	e0922005 	adds	r2, r2, r5
7efd746c:	e081e00c 	add	lr, r1, ip
7efd7470:	e0a33fc5 	adc	r3, r3, r5, asr #31
7efd7474:	e1530009 	cmp	r3, r9
7efd7478:	01520008 	cmpeq	r2, r8
7efd747c:	9a000067 	bls	0x7efd7620
7efd7480:	e3a06c36 	mov	r6, #13824	; 0x3600
7efd7484:	e3e07000 	mvn	r7, #0
7efd7488:	e34c6465 	movt	r6, #50277	; 0xc465
7efd748c:	e1a00008 	mov	r0, r8
7efd7490:	e1a01009 	mov	r1, r9
7efd7494:	e3a0c000 	mov	ip, #0
7efd7498:	e0922006 	adds	r2, r2, r6
7efd749c:	e28cc001 	add	ip, ip, #1
7efd74a0:	e0a33007 	adc	r3, r3, r7
7efd74a4:	e1530001 	cmp	r3, r1
7efd74a8:	01520000 	cmpeq	r2, r0
7efd74ac:	8afffff9 	bhi	0x7efd7498
7efd74b0:	e08cc00e 	add	ip, ip, lr
7efd74b4:	e5842004 	str	r2, [r4, #4]
7efd74b8:	e584c000 	str	ip, [r4]
7efd74bc:	e3a00000 	mov	r0, #0
7efd74c0:	eaffffd2 	b	0x7efd7410
7efd74c4:	e1a01000 	mov	r1, r0
7efd74c8:	e1a00004 	mov	r0, r4
7efd74cc:	ebffff73 	bl	0x7efd72a0
7efd74d0:	e3500000 	cmp	r0, #0
7efd74d4:	0a000003 	beq	0x7efd74e8
7efd74d8:	e1a01004 	mov	r1, r4
7efd74dc:	e1a00005 	mov	r0, r5
7efd74e0:	e3007107 	movw	r7, #263	; 0x107
7efd74e4:	ef000000 	svc	0x00000000
7efd74e8:	e28dd014 	add	sp, sp, #20
7efd74ec:	e8bd8ff0 	pop	{r4, r5, r6, r7, r8, r9, sl, fp, pc}
7efd74f0:	e58d500c 	str	r5, [sp, #12]
7efd74f4:	eaffffff 	b	0x7efd74f8
7efd74f8:	e5903000 	ldr	r3, [r0]
7efd74fc:	e3130001 	tst	r3, #1
7efd7500:	1afffffc 	bne	0x7efd74f8
7efd7504:	f57ff05b 	dmb	ish
7efd7508:	e1d020b4 	ldrh	r2, [r0, #4]
7efd750c:	e3520000 	cmp	r2, #0
7efd7510:	0a000040 	beq	0x7efd7618
7efd7514:	e5902018 	ldr	r2, [r0, #24]
7efd7518:	e5842000 	str	r2, [r4]
7efd751c:	f57ff06f 	isb	sy
7efd7520:	ec598f1e 	mrrc	15, 1, r8, r9, cr14
7efd7524:	e1c0a2d8 	ldrd	sl, [r0, #40]	; 0x28
7efd7528:	e1c062d0 	ldrd	r6, [r0, #32]
7efd752c:	e590101c 	ldr	r1, [r0, #28]
7efd7530:	e1cda0f0 	strd	sl, [sp]
7efd7534:	e1d0c0b6 	ldrh	ip, [r0, #6]
7efd7538:	e1c0a3d0 	ldrd	sl, [r0, #48]	; 0x30
7efd753c:	e5905010 	ldr	r5, [r0, #16]
7efd7540:	e590e014 	ldr	lr, [r0, #20]
7efd7544:	f57ff05b 	dmb	ish
7efd7548:	e5902000 	ldr	r2, [r0]
7efd754c:	e1520003 	cmp	r2, r3
7efd7550:	1affffe8 	bne	0x7efd74f8
7efd7554:	e1a02006 	mov	r2, r6
7efd7558:	e1a06008 	mov	r6, r8
7efd755c:	e1a08001 	mov	r8, r1
7efd7560:	e1cd00d0 	ldrd	r0, [sp]
7efd7564:	e0566002 	subs	r6, r6, r2
7efd7568:	e1a03007 	mov	r3, r7
7efd756c:	e1a07009 	mov	r7, r9
7efd7570:	e1a09005 	mov	r9, r5
7efd7574:	e0c77003 	sbc	r7, r7, r3
7efd7578:	e0000006 	and	r0, r0, r6
7efd757c:	e0011007 	and	r1, r1, r7
7efd7580:	e5946000 	ldr	r6, [r4]
7efd7584:	e1a07001 	mov	r7, r1
7efd7588:	e0810890 	umull	r0, r1, r0, r8
7efd758c:	e26c5020 	rsb	r5, ip, #32
7efd7590:	e58de00c 	str	lr, [sp, #12]
7efd7594:	e0899006 	add	r9, r9, r6
7efd7598:	e24ce020 	sub	lr, ip, #32
7efd759c:	e0211798 	mla	r1, r8, r7, r1
7efd75a0:	e090600a 	adds	r6, r0, sl
7efd75a4:	e1a02c36 	lsr	r2, r6, ip
7efd75a8:	e30c09ff 	movw	r0, #51711	; 0xc9ff
7efd75ac:	e0a1700b 	adc	r7, r1, fp
7efd75b0:	e59d100c 	ldr	r1, [sp, #12]
7efd75b4:	e1822517 	orr	r2, r2, r7, lsl r5
7efd75b8:	e1a03c37 	lsr	r3, r7, ip
7efd75bc:	e1822e37 	orr	r2, r2, r7, lsr lr
7efd75c0:	e3430b9a 	movt	r0, #15258	; 0x3b9a
7efd75c4:	e0922001 	adds	r2, r2, r1
7efd75c8:	e0a33fc1 	adc	r3, r3, r1, asr #31
7efd75cc:	e3a01000 	mov	r1, #0
7efd75d0:	e1530001 	cmp	r3, r1
7efd75d4:	01520000 	cmpeq	r2, r0
7efd75d8:	9a000012 	bls	0x7efd7628
7efd75dc:	e3a06c36 	mov	r6, #13824	; 0x3600
7efd75e0:	e3e07000 	mvn	r7, #0
7efd75e4:	e34c6465 	movt	r6, #50277	; 0xc465
7efd75e8:	e3a0c000 	mov	ip, #0
7efd75ec:	e0922006 	adds	r2, r2, r6
7efd75f0:	e28cc001 	add	ip, ip, #1
7efd75f4:	e0a33007 	adc	r3, r3, r7
7efd75f8:	e1530001 	cmp	r3, r1
7efd75fc:	01520000 	cmpeq	r2, r0
7efd7600:	8afffff9 	bhi	0x7efd75ec
7efd7604:	e08c9009 	add	r9, ip, r9
7efd7608:	e5842004 	str	r2, [r4, #4]
7efd760c:	e5849000 	str	r9, [r4]
7efd7610:	e3a00000 	mov	r0, #0
7efd7614:	eaffff7d 	b	0x7efd7410
7efd7618:	e59d500c 	ldr	r5, [sp, #12]
7efd761c:	eaffffad 	b	0x7efd74d8
7efd7620:	e3a0c000 	mov	ip, #0
7efd7624:	eaffffa1 	b	0x7efd74b0
7efd7628:	e3a0c000 	mov	ip, #0
7efd762c:	eafffff4 	b	0x7efd7604
7efd7630:	e92d40f0 	push	{r4, r5, r6, r7, lr}
7efd7634:	e24dd00c 	sub	sp, sp, #12
7efd7638:	e1a04001 	mov	r4, r1
7efd763c:	e1a06000 	mov	r6, r0
7efd7640:	eb000023 	bl	0x7efd76d4
7efd7644:	e1a01000 	mov	r1, r0
7efd7648:	e1a05000 	mov	r5, r0
7efd764c:	e1a0000d 	mov	r0, sp
7efd7650:	ebffff12 	bl	0x7efd72a0
7efd7654:	e3500000 	cmp	r0, #0
7efd7658:	1a000013 	bne	0x7efd76ac
7efd765c:	e3560000 	cmp	r6, #0
7efd7660:	0a000008 	beq	0x7efd7688
7efd7664:	e59d3004 	ldr	r3, [sp, #4]
7efd7668:	e3040dd3 	movw	r0, #19923	; 0x4dd3
7efd766c:	e3410062 	movt	r0, #4194	; 0x1062
7efd7670:	e59d2000 	ldr	r2, [sp]
7efd7674:	e0c10093 	smull	r0, r1, r3, r0
7efd7678:	e1a03fc3 	asr	r3, r3, #31
7efd767c:	e5862000 	str	r2, [r6]
7efd7680:	e0633341 	rsb	r3, r3, r1, asr #6
7efd7684:	e5863004 	str	r3, [r6, #4]
7efd7688:	e3540000 	cmp	r4, #0
7efd768c:	15953038 	ldrne	r3, [r5, #56]	; 0x38
7efd7690:	13a00000 	movne	r0, #0
7efd7694:	01a00004 	moveq	r0, r4
7efd7698:	15843000 	strne	r3, [r4]
7efd769c:	1595303c 	ldrne	r3, [r5, #60]	; 0x3c
7efd76a0:	15843004 	strne	r3, [r4, #4]
7efd76a4:	e28dd00c 	add	sp, sp, #12
7efd76a8:	e8bd80f0 	pop	{r4, r5, r6, r7, pc}
7efd76ac:	e1a01004 	mov	r1, r4
7efd76b0:	e1a00006 	mov	r0, r6
7efd76b4:	e3a0704e 	mov	r7, #78	; 0x4e
7efd76b8:	ef000000 	svc	0x00000000
7efd76bc:	e28dd00c 	add	sp, sp, #12
7efd76c0:	e8bd80f0 	pop	{r4, r5, r6, r7, pc}
7efd76c4:	e12fff1e 	bx	lr
7efd76c8:	e12fff1e 	bx	lr
7efd76cc:	e12fff1e 	bx	lr
7efd76d0:	ffffe930 			; <UNDEFINED> instruction: 0xffffe930
7efd76d4:	e24f000c 	sub	r0, pc, #12
7efd76d8:	e5901000 	ldr	r1, [r0]
7efd76dc:	e0800001 	add	r0, r0, r1
7efd76e0:	e12fff1e 	bx	lr
7efd76e4:	000001f8 	strdeq	r0, [r0], -r8
	...
7efd76f0:	3a434347 	bcc	0x800a8414
7efd76f4:	694c2820 	stmdbvs	ip, {r5, fp, sp}^
7efd76f8:	6f72616e 	svcvs	0x0072616e
7efd76fc:	43434720 	movtmi	r4, #14112	; 0x3720
7efd7700:	392e3420 	stmdbcc	lr!, {r5, sl, ip, sp}
7efd7704:	3130322d 	teqcc	r0, sp, lsr #4
7efd7708:	31302e37 	teqcc	r0, r7, lsr lr
7efd770c:	2e342029 	cdpcs	0, 3, cr2, cr4, cr9, {1}
7efd7710:	00342e39 	eorseq	r2, r4, r9, lsr lr
7efd7714:	00002e41 	andeq	r2, r0, r1, asr #28
7efd7718:	61656100 	cmnvs	r5, r0, lsl #2
7efd771c:	01006962 	tsteq	r0, r2, ror #18
7efd7720:	00000024 	andeq	r0, r0, r4, lsr #32
7efd7724:	412d3705 	teqmi	sp, r5, lsl #14
7efd7728:	070a0600 	streq	r0, [sl, -r0, lsl #12]
7efd772c:	09010841 	stmdbeq	r1, {r0, r6, fp}
7efd7730:	12020a02 	andne	r0, r2, #8192	; 0x2000
7efd7734:	15011404 	strne	r1, [r1, #-1028]	; 0x404
7efd7738:	18031701 	stmdane	r3, {r0, r8, r9, sl, ip}
7efd773c:	1e021a01 	vmlane.f32	s2, s4, s2
7efd7740:	00012202 	andeq	r2, r1, r2, lsl #4
7efd7744:	7368732e 	cmnvc	r8, #-1207959552	; 0xb8000000
7efd7748:	61747274 	cmnvs	r4, r4, ror r2
7efd774c:	682e0062 	stmdavs	lr!, {r1, r5, r6}
7efd7750:	00687361 	rsbeq	r7, r8, r1, ror #6
7efd7754:	6e79642e 	cdpvs	4, 7, cr6, cr9, cr14, {1}
7efd7758:	006d7973 	rsbeq	r7, sp, r3, ror r9
7efd775c:	6e79642e 	cdpvs	4, 7, cr6, cr9, cr14, {1}
7efd7760:	00727473 	rsbseq	r7, r2, r3, ror r4
7efd7764:	756e672e 	strbvc	r6, [lr, #-1838]!	; 0x72e
7efd7768:	7265762e 	rsbvc	r7, r5, #48234496	; 0x2e00000
7efd776c:	6e6f6973 	mcrvs	9, 3, r6, cr15, cr3, {3}
7efd7770:	6e672e00 	cdpvs	14, 6, cr2, cr7, cr0, {0}
7efd7774:	65762e75 	ldrbvs	r2, [r6, #-3701]!	; 0xe75
7efd7778:	6f697372 	svcvs	0x00697372
7efd777c:	00645f6e 	rsbeq	r5, r4, lr, ror #30
7efd7780:	746f6e2e 	strbtvc	r6, [pc], #-3630	; 0x7efd7788
7efd7784:	642e0065 	strtvs	r0, [lr], #-101	; 0x65
7efd7788:	6d616e79 	stclvs	14, cr6, [r1, #-484]!	; 0xfffffe1c
7efd778c:	2e006369 	cdpcs	3, 0, cr6, cr0, cr9, {3}
7efd7790:	2e4d5241 	cdpcs	2, 4, cr5, cr13, cr1, {2}
7efd7794:	64697865 	strbtvs	r7, [r9], #-2149	; 0x865
7efd7798:	742e0078 	strtvc	r0, [lr], #-120	; 0x78
7efd779c:	00747865 	rsbseq	r7, r4, r5, ror #16
7efd77a0:	746f672e 	strbtvc	r6, [pc], #-1838	; 0x7efd77a8
7efd77a4:	746c702e 	strbtvc	r7, [ip], #-46	; 0x2e
7efd77a8:	6f632e00 	svcvs	0x00632e00
7efd77ac:	6e656d6d 	cdpvs	13, 6, cr6, cr5, cr13, {3}
7efd77b0:	412e0074 	teqmi	lr, r4, ror r0
7efd77b4:	612e4d52 	teqvs	lr, r2, asr sp
7efd77b8:	69727474 	ldmdbvs	r2!, {r2, r4, r5, r6, sl, ip, sp, lr}^
7efd77bc:	65747562 	ldrbvs	r7, [r4, #-1378]!	; 0x562
7efd77c0:	00000073 	andeq	r0, r0, r3, ror r0
	...
7efd77ec:	0000000b 	andeq	r0, r0, fp
7efd77f0:	00000005 	andeq	r0, r0, r5
7efd77f4:	00000002 	andeq	r0, r0, r2
7efd77f8:	000000d4 	ldrdeq	r0, [r0], -r4
7efd77fc:	000000d4 	ldrdeq	r0, [r0], -r4
7efd7800:	00000028 	andeq	r0, r0, r8, lsr #32
7efd7804:	00000002 	andeq	r0, r0, r2
7efd7808:	00000000 	andeq	r0, r0, r0
7efd780c:	00000004 	andeq	r0, r0, r4
7efd7810:	00000004 	andeq	r0, r0, r4
7efd7814:	00000011 	andeq	r0, r0, r1, lsl r0
7efd7818:	0000000b 	andeq	r0, r0, fp
7efd781c:	00000002 	andeq	r0, r0, r2
7efd7820:	000000fc 	strdeq	r0, [r0], -ip
7efd7824:	000000fc 	strdeq	r0, [r0], -ip
7efd7828:	00000050 	andeq	r0, r0, r0, asr r0
7efd782c:	00000003 	andeq	r0, r0, r3
7efd7830:	00000002 	andeq	r0, r0, r2
7efd7834:	00000004 	andeq	r0, r0, r4
7efd7838:	00000010 	andeq	r0, r0, r0, lsl r0
7efd783c:	00000019 	andeq	r0, r0, r9, lsl r0
7efd7840:	00000003 	andeq	r0, r0, r3
7efd7844:	00000002 	andeq	r0, r0, r2
7efd7848:	0000014c 	andeq	r0, r0, ip, asr #2
7efd784c:	0000014c 	andeq	r0, r0, ip, asr #2
7efd7850:	00000044 	andeq	r0, r0, r4, asr #32
	...
7efd785c:	00000001 	andeq	r0, r0, r1
7efd7860:	00000000 	andeq	r0, r0, r0
7efd7864:	00000021 	andeq	r0, r0, r1, lsr #32
7efd7868:	6fffffff 	svcvs	0x00ffffff
7efd786c:	00000002 	andeq	r0, r0, r2
7efd7870:	00000190 	muleq	r0, r0, r1
7efd7874:	00000190 	muleq	r0, r0, r1
7efd7878:	0000000a 	andeq	r0, r0, sl
7efd787c:	00000002 	andeq	r0, r0, r2
7efd7880:	00000000 	andeq	r0, r0, r0
7efd7884:	00000002 	andeq	r0, r0, r2
7efd7888:	00000002 	andeq	r0, r0, r2
7efd788c:	0000002e 	andeq	r0, r0, lr, lsr #32
7efd7890:	6ffffffd 	svcvs	0x00fffffd
7efd7894:	00000002 	andeq	r0, r0, r2
7efd7898:	0000019c 	muleq	r0, ip, r1
7efd789c:	0000019c 	muleq	r0, ip, r1
7efd78a0:	00000038 	andeq	r0, r0, r8, lsr r0
7efd78a4:	00000003 	andeq	r0, r0, r3
7efd78a8:	00000002 	andeq	r0, r0, r2
7efd78ac:	00000004 	andeq	r0, r0, r4
7efd78b0:	00000000 	andeq	r0, r0, r0
7efd78b4:	0000003d 	andeq	r0, r0, sp, lsr r0
7efd78b8:	00000007 	andeq	r0, r0, r7
7efd78bc:	00000002 	andeq	r0, r0, r2
7efd78c0:	000001d4 	ldrdeq	r0, [r0], -r4
7efd78c4:	000001d4 	ldrdeq	r0, [r0], -r4
7efd78c8:	00000024 	andeq	r0, r0, r4, lsr #32
	...
7efd78d4:	00000004 	andeq	r0, r0, r4
7efd78d8:	00000000 	andeq	r0, r0, r0
7efd78dc:	00000043 	andeq	r0, r0, r3, asr #32
7efd78e0:	00000006 	andeq	r0, r0, r6
7efd78e4:	00000003 	andeq	r0, r0, r3
7efd78e8:	000001f8 	strdeq	r0, [r0], -r8
7efd78ec:	000001f8 	strdeq	r0, [r0], -r8
7efd78f0:	00000080 	andeq	r0, r0, r0, lsl #1
7efd78f4:	00000003 	andeq	r0, r0, r3
7efd78f8:	00000000 	andeq	r0, r0, r0
7efd78fc:	00000004 	andeq	r0, r0, r4
7efd7900:	00000008 	andeq	r0, r0, r8
7efd7904:	0000004c 	andeq	r0, r0, ip, asr #32
7efd7908:	70000001 	andvc	r0, r0, r1
7efd790c:	00000082 	andeq	r0, r0, r2, lsl #1
7efd7910:	00000278 	andeq	r0, r0, r8, ror r2
7efd7914:	00000278 	andeq	r0, r0, r8, ror r2
7efd7918:	00000028 	andeq	r0, r0, r8, lsr #32
7efd791c:	00000009 	andeq	r0, r0, r9
7efd7920:	00000000 	andeq	r0, r0, r0
7efd7924:	00000004 	andeq	r0, r0, r4
7efd7928:	00000000 	andeq	r0, r0, r0
7efd792c:	00000057 	andeq	r0, r0, r7, asr r0
7efd7930:	00000001 	andeq	r0, r0, r1
7efd7934:	00000006 	andeq	r0, r0, r6
7efd7938:	000002a0 	andeq	r0, r0, r0, lsr #5
7efd793c:	000002a0 	andeq	r0, r0, r0, lsr #5
7efd7940:	00000444 	andeq	r0, r0, r4, asr #8
	...
7efd794c:	00000004 	andeq	r0, r0, r4
7efd7950:	00000000 	andeq	r0, r0, r0
7efd7954:	0000005d 	andeq	r0, r0, sp, asr r0
7efd7958:	00000001 	andeq	r0, r0, r1
7efd795c:	00000003 	andeq	r0, r0, r3
7efd7960:	000006e4 	andeq	r0, r0, r4, ror #13
7efd7964:	000006e4 	andeq	r0, r0, r4, ror #13
7efd7968:	0000000c 	andeq	r0, r0, ip
	...
7efd7974:	00000004 	andeq	r0, r0, r4
7efd7978:	00000004 	andeq	r0, r0, r4
7efd797c:	00000066 	andeq	r0, r0, r6, rrx
7efd7980:	00000001 	andeq	r0, r0, r1
7efd7984:	00000030 	andeq	r0, r0, r0, lsr r0
7efd7988:	00000000 	andeq	r0, r0, r0
7efd798c:	000006f0 	strdeq	r0, [r0], -r0	; <UNPREDICTABLE>
7efd7990:	00000024 	andeq	r0, r0, r4, lsr #32
	...
7efd799c:	00000001 	andeq	r0, r0, r1
7efd79a0:	00000001 	andeq	r0, r0, r1
7efd79a4:	0000006f 	andeq	r0, r0, pc, rrx
7efd79a8:	70000003 	andvc	r0, r0, r3
	...
7efd79b4:	00000714 	andeq	r0, r0, r4, lsl r7
7efd79b8:	0000002f 	andeq	r0, r0, pc, lsr #32
	...
7efd79c4:	00000001 	andeq	r0, r0, r1
7efd79c8:	00000000 	andeq	r0, r0, r0
7efd79cc:	00000001 	andeq	r0, r0, r1
7efd79d0:	00000003 	andeq	r0, r0, r3
	...
7efd79dc:	00000743 	andeq	r0, r0, r3, asr #14
7efd79e0:	0000007f 	andeq	r0, r0, pc, ror r0
	...
7efd79ec:	00000001 	andeq	r0, r0, r1
	...

Disassembly of section load16:

ffff0000 <load16>:
ffff0000:	ea0003ff 	b	0xffff1004
ffff0004:	ea000465 	b	0xffff11a0
ffff0008:	e59ffff0 	ldr	pc, [pc, #4080]	; 0xffff1000
ffff000c:	ea000443 	b	0xffff1120
ffff0010:	ea000422 	b	0xffff10a0
ffff0014:	ea000481 	b	0xffff1220
ffff0018:	ea000400 	b	0xffff1020
ffff001c:	ea000487 	b	0xffff1240
ffff0020:	e7fddef1 	udf	#56801	; 0xdde1
ffff0024:	e7fddef1 	udf	#56801	; 0xdde1
ffff0028:	e7fddef1 	udf	#56801	; 0xdde1
ffff002c:	e7fddef1 	udf	#56801	; 0xdde1
ffff0030:	e7fddef1 	udf	#56801	; 0xdde1
ffff0034:	e7fddef1 	udf	#56801	; 0xdde1
ffff0038:	e7fddef1 	udf	#56801	; 0xdde1
ffff003c:	e7fddef1 	udf	#56801	; 0xdde1
ffff0040:	e7fddef1 	udf	#56801	; 0xdde1
ffff0044:	e7fddef1 	udf	#56801	; 0xdde1
ffff0048:	e7fddef1 	udf	#56801	; 0xdde1
ffff004c:	e7fddef1 	udf	#56801	; 0xdde1
ffff0050:	e7fddef1 	udf	#56801	; 0xdde1
ffff0054:	e7fddef1 	udf	#56801	; 0xdde1
ffff0058:	e7fddef1 	udf	#56801	; 0xdde1
ffff005c:	e7fddef1 	udf	#56801	; 0xdde1
ffff0060:	e7fddef1 	udf	#56801	; 0xdde1
ffff0064:	e7fddef1 	udf	#56801	; 0xdde1
ffff0068:	e7fddef1 	udf	#56801	; 0xdde1
ffff006c:	e7fddef1 	udf	#56801	; 0xdde1
ffff0070:	e7fddef1 	udf	#56801	; 0xdde1
ffff0074:	e7fddef1 	udf	#56801	; 0xdde1
ffff0078:	e7fddef1 	udf	#56801	; 0xdde1
ffff007c:	e7fddef1 	udf	#56801	; 0xdde1
ffff0080:	e7fddef1 	udf	#56801	; 0xdde1
ffff0084:	e7fddef1 	udf	#56801	; 0xdde1
ffff0088:	e7fddef1 	udf	#56801	; 0xdde1
ffff008c:	e7fddef1 	udf	#56801	; 0xdde1
ffff0090:	e7fddef1 	udf	#56801	; 0xdde1
ffff0094:	e7fddef1 	udf	#56801	; 0xdde1
ffff0098:	e7fddef1 	udf	#56801	; 0xdde1
ffff009c:	e7fddef1 	udf	#56801	; 0xdde1
ffff00a0:	e7fddef1 	udf	#56801	; 0xdde1
ffff00a4:	e7fddef1 	udf	#56801	; 0xdde1
ffff00a8:	e7fddef1 	udf	#56801	; 0xdde1
ffff00ac:	e7fddef1 	udf	#56801	; 0xdde1
ffff00b0:	e7fddef1 	udf	#56801	; 0xdde1
ffff00b4:	e7fddef1 	udf	#56801	; 0xdde1
ffff00b8:	e7fddef1 	udf	#56801	; 0xdde1
ffff00bc:	e7fddef1 	udf	#56801	; 0xdde1
ffff00c0:	e7fddef1 	udf	#56801	; 0xdde1
ffff00c4:	e7fddef1 	udf	#56801	; 0xdde1
ffff00c8:	e7fddef1 	udf	#56801	; 0xdde1
ffff00cc:	e7fddef1 	udf	#56801	; 0xdde1
ffff00d0:	e7fddef1 	udf	#56801	; 0xdde1
ffff00d4:	e7fddef1 	udf	#56801	; 0xdde1
ffff00d8:	e7fddef1 	udf	#56801	; 0xdde1
ffff00dc:	e7fddef1 	udf	#56801	; 0xdde1
ffff00e0:	e7fddef1 	udf	#56801	; 0xdde1
ffff00e4:	e7fddef1 	udf	#56801	; 0xdde1
ffff00e8:	e7fddef1 	udf	#56801	; 0xdde1
ffff00ec:	e7fddef1 	udf	#56801	; 0xdde1
ffff00f0:	e7fddef1 	udf	#56801	; 0xdde1
ffff00f4:	e7fddef1 	udf	#56801	; 0xdde1
ffff00f8:	e7fddef1 	udf	#56801	; 0xdde1
ffff00fc:	e7fddef1 	udf	#56801	; 0xdde1
ffff0100:	e7fddef1 	udf	#56801	; 0xdde1
ffff0104:	e7fddef1 	udf	#56801	; 0xdde1
ffff0108:	e7fddef1 	udf	#56801	; 0xdde1
ffff010c:	e7fddef1 	udf	#56801	; 0xdde1
ffff0110:	e7fddef1 	udf	#56801	; 0xdde1
ffff0114:	e7fddef1 	udf	#56801	; 0xdde1
ffff0118:	e7fddef1 	udf	#56801	; 0xdde1
ffff011c:	e7fddef1 	udf	#56801	; 0xdde1
ffff0120:	e7fddef1 	udf	#56801	; 0xdde1
ffff0124:	e7fddef1 	udf	#56801	; 0xdde1
ffff0128:	e7fddef1 	udf	#56801	; 0xdde1
ffff012c:	e7fddef1 	udf	#56801	; 0xdde1
ffff0130:	e7fddef1 	udf	#56801	; 0xdde1
ffff0134:	e7fddef1 	udf	#56801	; 0xdde1
ffff0138:	e7fddef1 	udf	#56801	; 0xdde1
ffff013c:	e7fddef1 	udf	#56801	; 0xdde1
ffff0140:	e7fddef1 	udf	#56801	; 0xdde1
ffff0144:	e7fddef1 	udf	#56801	; 0xdde1
ffff0148:	e7fddef1 	udf	#56801	; 0xdde1
ffff014c:	e7fddef1 	udf	#56801	; 0xdde1
ffff0150:	e7fddef1 	udf	#56801	; 0xdde1
ffff0154:	e7fddef1 	udf	#56801	; 0xdde1
ffff0158:	e7fddef1 	udf	#56801	; 0xdde1
ffff015c:	e7fddef1 	udf	#56801	; 0xdde1
ffff0160:	e7fddef1 	udf	#56801	; 0xdde1
ffff0164:	e7fddef1 	udf	#56801	; 0xdde1
ffff0168:	e7fddef1 	udf	#56801	; 0xdde1
ffff016c:	e7fddef1 	udf	#56801	; 0xdde1
ffff0170:	e7fddef1 	udf	#56801	; 0xdde1
ffff0174:	e7fddef1 	udf	#56801	; 0xdde1
ffff0178:	e7fddef1 	udf	#56801	; 0xdde1
ffff017c:	e7fddef1 	udf	#56801	; 0xdde1
ffff0180:	e7fddef1 	udf	#56801	; 0xdde1
ffff0184:	e7fddef1 	udf	#56801	; 0xdde1
ffff0188:	e7fddef1 	udf	#56801	; 0xdde1
ffff018c:	e7fddef1 	udf	#56801	; 0xdde1
ffff0190:	e7fddef1 	udf	#56801	; 0xdde1
ffff0194:	e7fddef1 	udf	#56801	; 0xdde1
ffff0198:	e7fddef1 	udf	#56801	; 0xdde1
ffff019c:	e7fddef1 	udf	#56801	; 0xdde1
ffff01a0:	e7fddef1 	udf	#56801	; 0xdde1
ffff01a4:	e7fddef1 	udf	#56801	; 0xdde1
ffff01a8:	e7fddef1 	udf	#56801	; 0xdde1
ffff01ac:	e7fddef1 	udf	#56801	; 0xdde1
ffff01b0:	e7fddef1 	udf	#56801	; 0xdde1
ffff01b4:	e7fddef1 	udf	#56801	; 0xdde1
ffff01b8:	e7fddef1 	udf	#56801	; 0xdde1
ffff01bc:	e7fddef1 	udf	#56801	; 0xdde1
ffff01c0:	e7fddef1 	udf	#56801	; 0xdde1
ffff01c4:	e7fddef1 	udf	#56801	; 0xdde1
ffff01c8:	e7fddef1 	udf	#56801	; 0xdde1
ffff01cc:	e7fddef1 	udf	#56801	; 0xdde1
ffff01d0:	e7fddef1 	udf	#56801	; 0xdde1
ffff01d4:	e7fddef1 	udf	#56801	; 0xdde1
ffff01d8:	e7fddef1 	udf	#56801	; 0xdde1
ffff01dc:	e7fddef1 	udf	#56801	; 0xdde1
ffff01e0:	e7fddef1 	udf	#56801	; 0xdde1
ffff01e4:	e7fddef1 	udf	#56801	; 0xdde1
ffff01e8:	e7fddef1 	udf	#56801	; 0xdde1
ffff01ec:	e7fddef1 	udf	#56801	; 0xdde1
ffff01f0:	e7fddef1 	udf	#56801	; 0xdde1
ffff01f4:	e7fddef1 	udf	#56801	; 0xdde1
ffff01f8:	e7fddef1 	udf	#56801	; 0xdde1
ffff01fc:	e7fddef1 	udf	#56801	; 0xdde1
ffff0200:	e7fddef1 	udf	#56801	; 0xdde1
ffff0204:	e7fddef1 	udf	#56801	; 0xdde1
ffff0208:	e7fddef1 	udf	#56801	; 0xdde1
ffff020c:	e7fddef1 	udf	#56801	; 0xdde1
ffff0210:	e7fddef1 	udf	#56801	; 0xdde1
ffff0214:	e7fddef1 	udf	#56801	; 0xdde1
ffff0218:	e7fddef1 	udf	#56801	; 0xdde1
ffff021c:	e7fddef1 	udf	#56801	; 0xdde1
ffff0220:	e7fddef1 	udf	#56801	; 0xdde1
ffff0224:	e7fddef1 	udf	#56801	; 0xdde1
ffff0228:	e7fddef1 	udf	#56801	; 0xdde1
ffff022c:	e7fddef1 	udf	#56801	; 0xdde1
ffff0230:	e7fddef1 	udf	#56801	; 0xdde1
ffff0234:	e7fddef1 	udf	#56801	; 0xdde1
ffff0238:	e7fddef1 	udf	#56801	; 0xdde1
ffff023c:	e7fddef1 	udf	#56801	; 0xdde1
ffff0240:	e7fddef1 	udf	#56801	; 0xdde1
ffff0244:	e7fddef1 	udf	#56801	; 0xdde1
ffff0248:	e7fddef1 	udf	#56801	; 0xdde1
ffff024c:	e7fddef1 	udf	#56801	; 0xdde1
ffff0250:	e7fddef1 	udf	#56801	; 0xdde1
ffff0254:	e7fddef1 	udf	#56801	; 0xdde1
ffff0258:	e7fddef1 	udf	#56801	; 0xdde1
ffff025c:	e7fddef1 	udf	#56801	; 0xdde1
ffff0260:	e7fddef1 	udf	#56801	; 0xdde1
ffff0264:	e7fddef1 	udf	#56801	; 0xdde1
ffff0268:	e7fddef1 	udf	#56801	; 0xdde1
ffff026c:	e7fddef1 	udf	#56801	; 0xdde1
ffff0270:	e7fddef1 	udf	#56801	; 0xdde1
ffff0274:	e7fddef1 	udf	#56801	; 0xdde1
ffff0278:	e7fddef1 	udf	#56801	; 0xdde1
ffff027c:	e7fddef1 	udf	#56801	; 0xdde1
ffff0280:	e7fddef1 	udf	#56801	; 0xdde1
ffff0284:	e7fddef1 	udf	#56801	; 0xdde1
ffff0288:	e7fddef1 	udf	#56801	; 0xdde1
ffff028c:	e7fddef1 	udf	#56801	; 0xdde1
ffff0290:	e7fddef1 	udf	#56801	; 0xdde1
ffff0294:	e7fddef1 	udf	#56801	; 0xdde1
ffff0298:	e7fddef1 	udf	#56801	; 0xdde1
ffff029c:	e7fddef1 	udf	#56801	; 0xdde1
ffff02a0:	e7fddef1 	udf	#56801	; 0xdde1
ffff02a4:	e7fddef1 	udf	#56801	; 0xdde1
ffff02a8:	e7fddef1 	udf	#56801	; 0xdde1
ffff02ac:	e7fddef1 	udf	#56801	; 0xdde1
ffff02b0:	e7fddef1 	udf	#56801	; 0xdde1
ffff02b4:	e7fddef1 	udf	#56801	; 0xdde1
ffff02b8:	e7fddef1 	udf	#56801	; 0xdde1
ffff02bc:	e7fddef1 	udf	#56801	; 0xdde1
ffff02c0:	e7fddef1 	udf	#56801	; 0xdde1
ffff02c4:	e7fddef1 	udf	#56801	; 0xdde1
ffff02c8:	e7fddef1 	udf	#56801	; 0xdde1
ffff02cc:	e7fddef1 	udf	#56801	; 0xdde1
ffff02d0:	e7fddef1 	udf	#56801	; 0xdde1
ffff02d4:	e7fddef1 	udf	#56801	; 0xdde1
ffff02d8:	e7fddef1 	udf	#56801	; 0xdde1
ffff02dc:	e7fddef1 	udf	#56801	; 0xdde1
ffff02e0:	e7fddef1 	udf	#56801	; 0xdde1
ffff02e4:	e7fddef1 	udf	#56801	; 0xdde1
ffff02e8:	e7fddef1 	udf	#56801	; 0xdde1
ffff02ec:	e7fddef1 	udf	#56801	; 0xdde1
ffff02f0:	e7fddef1 	udf	#56801	; 0xdde1
ffff02f4:	e7fddef1 	udf	#56801	; 0xdde1
ffff02f8:	e7fddef1 	udf	#56801	; 0xdde1
ffff02fc:	e7fddef1 	udf	#56801	; 0xdde1
ffff0300:	e7fddef1 	udf	#56801	; 0xdde1
ffff0304:	e7fddef1 	udf	#56801	; 0xdde1
ffff0308:	e7fddef1 	udf	#56801	; 0xdde1
ffff030c:	e7fddef1 	udf	#56801	; 0xdde1
ffff0310:	e7fddef1 	udf	#56801	; 0xdde1
ffff0314:	e7fddef1 	udf	#56801	; 0xdde1
ffff0318:	e7fddef1 	udf	#56801	; 0xdde1
ffff031c:	e7fddef1 	udf	#56801	; 0xdde1
ffff0320:	e7fddef1 	udf	#56801	; 0xdde1
ffff0324:	e7fddef1 	udf	#56801	; 0xdde1
ffff0328:	e7fddef1 	udf	#56801	; 0xdde1
ffff032c:	e7fddef1 	udf	#56801	; 0xdde1
ffff0330:	e7fddef1 	udf	#56801	; 0xdde1
ffff0334:	e7fddef1 	udf	#56801	; 0xdde1
ffff0338:	e7fddef1 	udf	#56801	; 0xdde1
ffff033c:	e7fddef1 	udf	#56801	; 0xdde1
ffff0340:	e7fddef1 	udf	#56801	; 0xdde1
ffff0344:	e7fddef1 	udf	#56801	; 0xdde1
ffff0348:	e7fddef1 	udf	#56801	; 0xdde1
ffff034c:	e7fddef1 	udf	#56801	; 0xdde1
ffff0350:	e7fddef1 	udf	#56801	; 0xdde1
ffff0354:	e7fddef1 	udf	#56801	; 0xdde1
ffff0358:	e7fddef1 	udf	#56801	; 0xdde1
ffff035c:	e7fddef1 	udf	#56801	; 0xdde1
ffff0360:	e7fddef1 	udf	#56801	; 0xdde1
ffff0364:	e7fddef1 	udf	#56801	; 0xdde1
ffff0368:	e7fddef1 	udf	#56801	; 0xdde1
ffff036c:	e7fddef1 	udf	#56801	; 0xdde1
ffff0370:	e7fddef1 	udf	#56801	; 0xdde1
ffff0374:	e7fddef1 	udf	#56801	; 0xdde1
ffff0378:	e7fddef1 	udf	#56801	; 0xdde1
ffff037c:	e7fddef1 	udf	#56801	; 0xdde1
ffff0380:	e7fddef1 	udf	#56801	; 0xdde1
ffff0384:	e7fddef1 	udf	#56801	; 0xdde1
ffff0388:	e7fddef1 	udf	#56801	; 0xdde1
ffff038c:	e7fddef1 	udf	#56801	; 0xdde1
ffff0390:	e7fddef1 	udf	#56801	; 0xdde1
ffff0394:	e7fddef1 	udf	#56801	; 0xdde1
ffff0398:	e7fddef1 	udf	#56801	; 0xdde1
ffff039c:	e7fddef1 	udf	#56801	; 0xdde1
ffff03a0:	e7fddef1 	udf	#56801	; 0xdde1
ffff03a4:	e7fddef1 	udf	#56801	; 0xdde1
ffff03a8:	e7fddef1 	udf	#56801	; 0xdde1
ffff03ac:	e7fddef1 	udf	#56801	; 0xdde1
ffff03b0:	e7fddef1 	udf	#56801	; 0xdde1
ffff03b4:	e7fddef1 	udf	#56801	; 0xdde1
ffff03b8:	e7fddef1 	udf	#56801	; 0xdde1
ffff03bc:	e7fddef1 	udf	#56801	; 0xdde1
ffff03c0:	e7fddef1 	udf	#56801	; 0xdde1
ffff03c4:	e7fddef1 	udf	#56801	; 0xdde1
ffff03c8:	e7fddef1 	udf	#56801	; 0xdde1
ffff03cc:	e7fddef1 	udf	#56801	; 0xdde1
ffff03d0:	e7fddef1 	udf	#56801	; 0xdde1
ffff03d4:	e7fddef1 	udf	#56801	; 0xdde1
ffff03d8:	e7fddef1 	udf	#56801	; 0xdde1
ffff03dc:	e7fddef1 	udf	#56801	; 0xdde1
ffff03e0:	e7fddef1 	udf	#56801	; 0xdde1
ffff03e4:	e7fddef1 	udf	#56801	; 0xdde1
ffff03e8:	e7fddef1 	udf	#56801	; 0xdde1
ffff03ec:	e7fddef1 	udf	#56801	; 0xdde1
ffff03f0:	e7fddef1 	udf	#56801	; 0xdde1
ffff03f4:	e7fddef1 	udf	#56801	; 0xdde1
ffff03f8:	e7fddef1 	udf	#56801	; 0xdde1
ffff03fc:	e7fddef1 	udf	#56801	; 0xdde1
ffff0400:	e7fddef1 	udf	#56801	; 0xdde1
ffff0404:	e7fddef1 	udf	#56801	; 0xdde1
ffff0408:	e7fddef1 	udf	#56801	; 0xdde1
ffff040c:	e7fddef1 	udf	#56801	; 0xdde1
ffff0410:	e7fddef1 	udf	#56801	; 0xdde1
ffff0414:	e7fddef1 	udf	#56801	; 0xdde1
ffff0418:	e7fddef1 	udf	#56801	; 0xdde1
ffff041c:	e7fddef1 	udf	#56801	; 0xdde1
ffff0420:	e7fddef1 	udf	#56801	; 0xdde1
ffff0424:	e7fddef1 	udf	#56801	; 0xdde1
ffff0428:	e7fddef1 	udf	#56801	; 0xdde1
ffff042c:	e7fddef1 	udf	#56801	; 0xdde1
ffff0430:	e7fddef1 	udf	#56801	; 0xdde1
ffff0434:	e7fddef1 	udf	#56801	; 0xdde1
ffff0438:	e7fddef1 	udf	#56801	; 0xdde1
ffff043c:	e7fddef1 	udf	#56801	; 0xdde1
ffff0440:	e7fddef1 	udf	#56801	; 0xdde1
ffff0444:	e7fddef1 	udf	#56801	; 0xdde1
ffff0448:	e7fddef1 	udf	#56801	; 0xdde1
ffff044c:	e7fddef1 	udf	#56801	; 0xdde1
ffff0450:	e7fddef1 	udf	#56801	; 0xdde1
ffff0454:	e7fddef1 	udf	#56801	; 0xdde1
ffff0458:	e7fddef1 	udf	#56801	; 0xdde1
ffff045c:	e7fddef1 	udf	#56801	; 0xdde1
ffff0460:	e7fddef1 	udf	#56801	; 0xdde1
ffff0464:	e7fddef1 	udf	#56801	; 0xdde1
ffff0468:	e7fddef1 	udf	#56801	; 0xdde1
ffff046c:	e7fddef1 	udf	#56801	; 0xdde1
ffff0470:	e7fddef1 	udf	#56801	; 0xdde1
ffff0474:	e7fddef1 	udf	#56801	; 0xdde1
ffff0478:	e7fddef1 	udf	#56801	; 0xdde1
ffff047c:	e7fddef1 	udf	#56801	; 0xdde1
ffff0480:	e7fddef1 	udf	#56801	; 0xdde1
ffff0484:	e7fddef1 	udf	#56801	; 0xdde1
ffff0488:	e7fddef1 	udf	#56801	; 0xdde1
ffff048c:	e7fddef1 	udf	#56801	; 0xdde1
ffff0490:	e7fddef1 	udf	#56801	; 0xdde1
ffff0494:	e7fddef1 	udf	#56801	; 0xdde1
ffff0498:	e7fddef1 	udf	#56801	; 0xdde1
ffff049c:	e7fddef1 	udf	#56801	; 0xdde1
ffff04a0:	e7fddef1 	udf	#56801	; 0xdde1
ffff04a4:	e7fddef1 	udf	#56801	; 0xdde1
ffff04a8:	e7fddef1 	udf	#56801	; 0xdde1
ffff04ac:	e7fddef1 	udf	#56801	; 0xdde1
ffff04b0:	e7fddef1 	udf	#56801	; 0xdde1
ffff04b4:	e7fddef1 	udf	#56801	; 0xdde1
ffff04b8:	e7fddef1 	udf	#56801	; 0xdde1
ffff04bc:	e7fddef1 	udf	#56801	; 0xdde1
ffff04c0:	e7fddef1 	udf	#56801	; 0xdde1
ffff04c4:	e7fddef1 	udf	#56801	; 0xdde1
ffff04c8:	e7fddef1 	udf	#56801	; 0xdde1
ffff04cc:	e7fddef1 	udf	#56801	; 0xdde1
ffff04d0:	e7fddef1 	udf	#56801	; 0xdde1
ffff04d4:	e7fddef1 	udf	#56801	; 0xdde1
ffff04d8:	e7fddef1 	udf	#56801	; 0xdde1
ffff04dc:	e7fddef1 	udf	#56801	; 0xdde1
ffff04e0:	e7fddef1 	udf	#56801	; 0xdde1
ffff04e4:	e7fddef1 	udf	#56801	; 0xdde1
ffff04e8:	e7fddef1 	udf	#56801	; 0xdde1
ffff04ec:	e7fddef1 	udf	#56801	; 0xdde1
ffff04f0:	e7fddef1 	udf	#56801	; 0xdde1
ffff04f4:	e7fddef1 	udf	#56801	; 0xdde1
ffff04f8:	e7fddef1 	udf	#56801	; 0xdde1
ffff04fc:	e7fddef1 	udf	#56801	; 0xdde1
ffff0500:	e7fddef1 	udf	#56801	; 0xdde1
ffff0504:	e7fddef1 	udf	#56801	; 0xdde1
ffff0508:	e7fddef1 	udf	#56801	; 0xdde1
ffff050c:	e7fddef1 	udf	#56801	; 0xdde1
ffff0510:	e7fddef1 	udf	#56801	; 0xdde1
ffff0514:	e7fddef1 	udf	#56801	; 0xdde1
ffff0518:	e7fddef1 	udf	#56801	; 0xdde1
ffff051c:	e7fddef1 	udf	#56801	; 0xdde1
ffff0520:	e7fddef1 	udf	#56801	; 0xdde1
ffff0524:	e7fddef1 	udf	#56801	; 0xdde1
ffff0528:	e7fddef1 	udf	#56801	; 0xdde1
ffff052c:	e7fddef1 	udf	#56801	; 0xdde1
ffff0530:	e7fddef1 	udf	#56801	; 0xdde1
ffff0534:	e7fddef1 	udf	#56801	; 0xdde1
ffff0538:	e7fddef1 	udf	#56801	; 0xdde1
ffff053c:	e7fddef1 	udf	#56801	; 0xdde1
ffff0540:	e7fddef1 	udf	#56801	; 0xdde1
ffff0544:	e7fddef1 	udf	#56801	; 0xdde1
ffff0548:	e7fddef1 	udf	#56801	; 0xdde1
ffff054c:	e7fddef1 	udf	#56801	; 0xdde1
ffff0550:	e7fddef1 	udf	#56801	; 0xdde1
ffff0554:	e7fddef1 	udf	#56801	; 0xdde1
ffff0558:	e7fddef1 	udf	#56801	; 0xdde1
ffff055c:	e7fddef1 	udf	#56801	; 0xdde1
ffff0560:	e7fddef1 	udf	#56801	; 0xdde1
ffff0564:	e7fddef1 	udf	#56801	; 0xdde1
ffff0568:	e7fddef1 	udf	#56801	; 0xdde1
ffff056c:	e7fddef1 	udf	#56801	; 0xdde1
ffff0570:	e7fddef1 	udf	#56801	; 0xdde1
ffff0574:	e7fddef1 	udf	#56801	; 0xdde1
ffff0578:	e7fddef1 	udf	#56801	; 0xdde1
ffff057c:	e7fddef1 	udf	#56801	; 0xdde1
ffff0580:	e7fddef1 	udf	#56801	; 0xdde1
ffff0584:	e7fddef1 	udf	#56801	; 0xdde1
ffff0588:	e7fddef1 	udf	#56801	; 0xdde1
ffff058c:	e7fddef1 	udf	#56801	; 0xdde1
ffff0590:	e7fddef1 	udf	#56801	; 0xdde1
ffff0594:	e7fddef1 	udf	#56801	; 0xdde1
ffff0598:	e7fddef1 	udf	#56801	; 0xdde1
ffff059c:	e7fddef1 	udf	#56801	; 0xdde1
ffff05a0:	e7fddef1 	udf	#56801	; 0xdde1
ffff05a4:	e7fddef1 	udf	#56801	; 0xdde1
ffff05a8:	e7fddef1 	udf	#56801	; 0xdde1
ffff05ac:	e7fddef1 	udf	#56801	; 0xdde1
ffff05b0:	e7fddef1 	udf	#56801	; 0xdde1
ffff05b4:	e7fddef1 	udf	#56801	; 0xdde1
ffff05b8:	e7fddef1 	udf	#56801	; 0xdde1
ffff05bc:	e7fddef1 	udf	#56801	; 0xdde1
ffff05c0:	e7fddef1 	udf	#56801	; 0xdde1
ffff05c4:	e7fddef1 	udf	#56801	; 0xdde1
ffff05c8:	e7fddef1 	udf	#56801	; 0xdde1
ffff05cc:	e7fddef1 	udf	#56801	; 0xdde1
ffff05d0:	e7fddef1 	udf	#56801	; 0xdde1
ffff05d4:	e7fddef1 	udf	#56801	; 0xdde1
ffff05d8:	e7fddef1 	udf	#56801	; 0xdde1
ffff05dc:	e7fddef1 	udf	#56801	; 0xdde1
ffff05e0:	e7fddef1 	udf	#56801	; 0xdde1
ffff05e4:	e7fddef1 	udf	#56801	; 0xdde1
ffff05e8:	e7fddef1 	udf	#56801	; 0xdde1
ffff05ec:	e7fddef1 	udf	#56801	; 0xdde1
ffff05f0:	e7fddef1 	udf	#56801	; 0xdde1
ffff05f4:	e7fddef1 	udf	#56801	; 0xdde1
ffff05f8:	e7fddef1 	udf	#56801	; 0xdde1
ffff05fc:	e7fddef1 	udf	#56801	; 0xdde1
ffff0600:	e7fddef1 	udf	#56801	; 0xdde1
ffff0604:	e7fddef1 	udf	#56801	; 0xdde1
ffff0608:	e7fddef1 	udf	#56801	; 0xdde1
ffff060c:	e7fddef1 	udf	#56801	; 0xdde1
ffff0610:	e7fddef1 	udf	#56801	; 0xdde1
ffff0614:	e7fddef1 	udf	#56801	; 0xdde1
ffff0618:	e7fddef1 	udf	#56801	; 0xdde1
ffff061c:	e7fddef1 	udf	#56801	; 0xdde1
ffff0620:	e7fddef1 	udf	#56801	; 0xdde1
ffff0624:	e7fddef1 	udf	#56801	; 0xdde1
ffff0628:	e7fddef1 	udf	#56801	; 0xdde1
ffff062c:	e7fddef1 	udf	#56801	; 0xdde1
ffff0630:	e7fddef1 	udf	#56801	; 0xdde1
ffff0634:	e7fddef1 	udf	#56801	; 0xdde1
ffff0638:	e7fddef1 	udf	#56801	; 0xdde1
ffff063c:	e7fddef1 	udf	#56801	; 0xdde1
ffff0640:	e7fddef1 	udf	#56801	; 0xdde1
ffff0644:	e7fddef1 	udf	#56801	; 0xdde1
ffff0648:	e7fddef1 	udf	#56801	; 0xdde1
ffff064c:	e7fddef1 	udf	#56801	; 0xdde1
ffff0650:	e7fddef1 	udf	#56801	; 0xdde1
ffff0654:	e7fddef1 	udf	#56801	; 0xdde1
ffff0658:	e7fddef1 	udf	#56801	; 0xdde1
ffff065c:	e7fddef1 	udf	#56801	; 0xdde1
ffff0660:	e7fddef1 	udf	#56801	; 0xdde1
ffff0664:	e7fddef1 	udf	#56801	; 0xdde1
ffff0668:	e7fddef1 	udf	#56801	; 0xdde1
ffff066c:	e7fddef1 	udf	#56801	; 0xdde1
ffff0670:	e7fddef1 	udf	#56801	; 0xdde1
ffff0674:	e7fddef1 	udf	#56801	; 0xdde1
ffff0678:	e7fddef1 	udf	#56801	; 0xdde1
ffff067c:	e7fddef1 	udf	#56801	; 0xdde1
ffff0680:	e7fddef1 	udf	#56801	; 0xdde1
ffff0684:	e7fddef1 	udf	#56801	; 0xdde1
ffff0688:	e7fddef1 	udf	#56801	; 0xdde1
ffff068c:	e7fddef1 	udf	#56801	; 0xdde1
ffff0690:	e7fddef1 	udf	#56801	; 0xdde1
ffff0694:	e7fddef1 	udf	#56801	; 0xdde1
ffff0698:	e7fddef1 	udf	#56801	; 0xdde1
ffff069c:	e7fddef1 	udf	#56801	; 0xdde1
ffff06a0:	e7fddef1 	udf	#56801	; 0xdde1
ffff06a4:	e7fddef1 	udf	#56801	; 0xdde1
ffff06a8:	e7fddef1 	udf	#56801	; 0xdde1
ffff06ac:	e7fddef1 	udf	#56801	; 0xdde1
ffff06b0:	e7fddef1 	udf	#56801	; 0xdde1
ffff06b4:	e7fddef1 	udf	#56801	; 0xdde1
ffff06b8:	e7fddef1 	udf	#56801	; 0xdde1
ffff06bc:	e7fddef1 	udf	#56801	; 0xdde1
ffff06c0:	e7fddef1 	udf	#56801	; 0xdde1
ffff06c4:	e7fddef1 	udf	#56801	; 0xdde1
ffff06c8:	e7fddef1 	udf	#56801	; 0xdde1
ffff06cc:	e7fddef1 	udf	#56801	; 0xdde1
ffff06d0:	e7fddef1 	udf	#56801	; 0xdde1
ffff06d4:	e7fddef1 	udf	#56801	; 0xdde1
ffff06d8:	e7fddef1 	udf	#56801	; 0xdde1
ffff06dc:	e7fddef1 	udf	#56801	; 0xdde1
ffff06e0:	e7fddef1 	udf	#56801	; 0xdde1
ffff06e4:	e7fddef1 	udf	#56801	; 0xdde1
ffff06e8:	e7fddef1 	udf	#56801	; 0xdde1
ffff06ec:	e7fddef1 	udf	#56801	; 0xdde1
ffff06f0:	e7fddef1 	udf	#56801	; 0xdde1
ffff06f4:	e7fddef1 	udf	#56801	; 0xdde1
ffff06f8:	e7fddef1 	udf	#56801	; 0xdde1
ffff06fc:	e7fddef1 	udf	#56801	; 0xdde1
ffff0700:	e7fddef1 	udf	#56801	; 0xdde1
ffff0704:	e7fddef1 	udf	#56801	; 0xdde1
ffff0708:	e7fddef1 	udf	#56801	; 0xdde1
ffff070c:	e7fddef1 	udf	#56801	; 0xdde1
ffff0710:	e7fddef1 	udf	#56801	; 0xdde1
ffff0714:	e7fddef1 	udf	#56801	; 0xdde1
ffff0718:	e7fddef1 	udf	#56801	; 0xdde1
ffff071c:	e7fddef1 	udf	#56801	; 0xdde1
ffff0720:	e7fddef1 	udf	#56801	; 0xdde1
ffff0724:	e7fddef1 	udf	#56801	; 0xdde1
ffff0728:	e7fddef1 	udf	#56801	; 0xdde1
ffff072c:	e7fddef1 	udf	#56801	; 0xdde1
ffff0730:	e7fddef1 	udf	#56801	; 0xdde1
ffff0734:	e7fddef1 	udf	#56801	; 0xdde1
ffff0738:	e7fddef1 	udf	#56801	; 0xdde1
ffff073c:	e7fddef1 	udf	#56801	; 0xdde1
ffff0740:	e7fddef1 	udf	#56801	; 0xdde1
ffff0744:	e7fddef1 	udf	#56801	; 0xdde1
ffff0748:	e7fddef1 	udf	#56801	; 0xdde1
ffff074c:	e7fddef1 	udf	#56801	; 0xdde1
ffff0750:	e7fddef1 	udf	#56801	; 0xdde1
ffff0754:	e7fddef1 	udf	#56801	; 0xdde1
ffff0758:	e7fddef1 	udf	#56801	; 0xdde1
ffff075c:	e7fddef1 	udf	#56801	; 0xdde1
ffff0760:	e7fddef1 	udf	#56801	; 0xdde1
ffff0764:	e7fddef1 	udf	#56801	; 0xdde1
ffff0768:	e7fddef1 	udf	#56801	; 0xdde1
ffff076c:	e7fddef1 	udf	#56801	; 0xdde1
ffff0770:	e7fddef1 	udf	#56801	; 0xdde1
ffff0774:	e7fddef1 	udf	#56801	; 0xdde1
ffff0778:	e7fddef1 	udf	#56801	; 0xdde1
ffff077c:	e7fddef1 	udf	#56801	; 0xdde1
ffff0780:	e7fddef1 	udf	#56801	; 0xdde1
ffff0784:	e7fddef1 	udf	#56801	; 0xdde1
ffff0788:	e7fddef1 	udf	#56801	; 0xdde1
ffff078c:	e7fddef1 	udf	#56801	; 0xdde1
ffff0790:	e7fddef1 	udf	#56801	; 0xdde1
ffff0794:	e7fddef1 	udf	#56801	; 0xdde1
ffff0798:	e7fddef1 	udf	#56801	; 0xdde1
ffff079c:	e7fddef1 	udf	#56801	; 0xdde1
ffff07a0:	e7fddef1 	udf	#56801	; 0xdde1
ffff07a4:	e7fddef1 	udf	#56801	; 0xdde1
ffff07a8:	e7fddef1 	udf	#56801	; 0xdde1
ffff07ac:	e7fddef1 	udf	#56801	; 0xdde1
ffff07b0:	e7fddef1 	udf	#56801	; 0xdde1
ffff07b4:	e7fddef1 	udf	#56801	; 0xdde1
ffff07b8:	e7fddef1 	udf	#56801	; 0xdde1
ffff07bc:	e7fddef1 	udf	#56801	; 0xdde1
ffff07c0:	e7fddef1 	udf	#56801	; 0xdde1
ffff07c4:	e7fddef1 	udf	#56801	; 0xdde1
ffff07c8:	e7fddef1 	udf	#56801	; 0xdde1
ffff07cc:	e7fddef1 	udf	#56801	; 0xdde1
ffff07d0:	e7fddef1 	udf	#56801	; 0xdde1
ffff07d4:	e7fddef1 	udf	#56801	; 0xdde1
ffff07d8:	e7fddef1 	udf	#56801	; 0xdde1
ffff07dc:	e7fddef1 	udf	#56801	; 0xdde1
ffff07e0:	e7fddef1 	udf	#56801	; 0xdde1
ffff07e4:	e7fddef1 	udf	#56801	; 0xdde1
ffff07e8:	e7fddef1 	udf	#56801	; 0xdde1
ffff07ec:	e7fddef1 	udf	#56801	; 0xdde1
ffff07f0:	e7fddef1 	udf	#56801	; 0xdde1
ffff07f4:	e7fddef1 	udf	#56801	; 0xdde1
ffff07f8:	e7fddef1 	udf	#56801	; 0xdde1
ffff07fc:	e7fddef1 	udf	#56801	; 0xdde1
ffff0800:	e7fddef1 	udf	#56801	; 0xdde1
ffff0804:	e7fddef1 	udf	#56801	; 0xdde1
ffff0808:	e7fddef1 	udf	#56801	; 0xdde1
ffff080c:	e7fddef1 	udf	#56801	; 0xdde1
ffff0810:	e7fddef1 	udf	#56801	; 0xdde1
ffff0814:	e7fddef1 	udf	#56801	; 0xdde1
ffff0818:	e7fddef1 	udf	#56801	; 0xdde1
ffff081c:	e7fddef1 	udf	#56801	; 0xdde1
ffff0820:	e7fddef1 	udf	#56801	; 0xdde1
ffff0824:	e7fddef1 	udf	#56801	; 0xdde1
ffff0828:	e7fddef1 	udf	#56801	; 0xdde1
ffff082c:	e7fddef1 	udf	#56801	; 0xdde1
ffff0830:	e7fddef1 	udf	#56801	; 0xdde1
ffff0834:	e7fddef1 	udf	#56801	; 0xdde1
ffff0838:	e7fddef1 	udf	#56801	; 0xdde1
ffff083c:	e7fddef1 	udf	#56801	; 0xdde1
ffff0840:	e7fddef1 	udf	#56801	; 0xdde1
ffff0844:	e7fddef1 	udf	#56801	; 0xdde1
ffff0848:	e7fddef1 	udf	#56801	; 0xdde1
ffff084c:	e7fddef1 	udf	#56801	; 0xdde1
ffff0850:	e7fddef1 	udf	#56801	; 0xdde1
ffff0854:	e7fddef1 	udf	#56801	; 0xdde1
ffff0858:	e7fddef1 	udf	#56801	; 0xdde1
ffff085c:	e7fddef1 	udf	#56801	; 0xdde1
ffff0860:	e7fddef1 	udf	#56801	; 0xdde1
ffff0864:	e7fddef1 	udf	#56801	; 0xdde1
ffff0868:	e7fddef1 	udf	#56801	; 0xdde1
ffff086c:	e7fddef1 	udf	#56801	; 0xdde1
ffff0870:	e7fddef1 	udf	#56801	; 0xdde1
ffff0874:	e7fddef1 	udf	#56801	; 0xdde1
ffff0878:	e7fddef1 	udf	#56801	; 0xdde1
ffff087c:	e7fddef1 	udf	#56801	; 0xdde1
ffff0880:	e7fddef1 	udf	#56801	; 0xdde1
ffff0884:	e7fddef1 	udf	#56801	; 0xdde1
ffff0888:	e7fddef1 	udf	#56801	; 0xdde1
ffff088c:	e7fddef1 	udf	#56801	; 0xdde1
ffff0890:	e7fddef1 	udf	#56801	; 0xdde1
ffff0894:	e7fddef1 	udf	#56801	; 0xdde1
ffff0898:	e7fddef1 	udf	#56801	; 0xdde1
ffff089c:	e7fddef1 	udf	#56801	; 0xdde1
ffff08a0:	e7fddef1 	udf	#56801	; 0xdde1
ffff08a4:	e7fddef1 	udf	#56801	; 0xdde1
ffff08a8:	e7fddef1 	udf	#56801	; 0xdde1
ffff08ac:	e7fddef1 	udf	#56801	; 0xdde1
ffff08b0:	e7fddef1 	udf	#56801	; 0xdde1
ffff08b4:	e7fddef1 	udf	#56801	; 0xdde1
ffff08b8:	e7fddef1 	udf	#56801	; 0xdde1
ffff08bc:	e7fddef1 	udf	#56801	; 0xdde1
ffff08c0:	e7fddef1 	udf	#56801	; 0xdde1
ffff08c4:	e7fddef1 	udf	#56801	; 0xdde1
ffff08c8:	e7fddef1 	udf	#56801	; 0xdde1
ffff08cc:	e7fddef1 	udf	#56801	; 0xdde1
ffff08d0:	e7fddef1 	udf	#56801	; 0xdde1
ffff08d4:	e7fddef1 	udf	#56801	; 0xdde1
ffff08d8:	e7fddef1 	udf	#56801	; 0xdde1
ffff08dc:	e7fddef1 	udf	#56801	; 0xdde1
ffff08e0:	e7fddef1 	udf	#56801	; 0xdde1
ffff08e4:	e7fddef1 	udf	#56801	; 0xdde1
ffff08e8:	e7fddef1 	udf	#56801	; 0xdde1
ffff08ec:	e7fddef1 	udf	#56801	; 0xdde1
ffff08f0:	e7fddef1 	udf	#56801	; 0xdde1
ffff08f4:	e7fddef1 	udf	#56801	; 0xdde1
ffff08f8:	e7fddef1 	udf	#56801	; 0xdde1
ffff08fc:	e7fddef1 	udf	#56801	; 0xdde1
ffff0900:	e7fddef1 	udf	#56801	; 0xdde1
ffff0904:	e7fddef1 	udf	#56801	; 0xdde1
ffff0908:	e7fddef1 	udf	#56801	; 0xdde1
ffff090c:	e7fddef1 	udf	#56801	; 0xdde1
ffff0910:	e7fddef1 	udf	#56801	; 0xdde1
ffff0914:	e7fddef1 	udf	#56801	; 0xdde1
ffff0918:	e7fddef1 	udf	#56801	; 0xdde1
ffff091c:	e7fddef1 	udf	#56801	; 0xdde1
ffff0920:	e7fddef1 	udf	#56801	; 0xdde1
ffff0924:	e7fddef1 	udf	#56801	; 0xdde1
ffff0928:	e7fddef1 	udf	#56801	; 0xdde1
ffff092c:	e7fddef1 	udf	#56801	; 0xdde1
ffff0930:	e7fddef1 	udf	#56801	; 0xdde1
ffff0934:	e7fddef1 	udf	#56801	; 0xdde1
ffff0938:	e7fddef1 	udf	#56801	; 0xdde1
ffff093c:	e7fddef1 	udf	#56801	; 0xdde1
ffff0940:	e7fddef1 	udf	#56801	; 0xdde1
ffff0944:	e7fddef1 	udf	#56801	; 0xdde1
ffff0948:	e7fddef1 	udf	#56801	; 0xdde1
ffff094c:	e7fddef1 	udf	#56801	; 0xdde1
ffff0950:	e7fddef1 	udf	#56801	; 0xdde1
ffff0954:	e7fddef1 	udf	#56801	; 0xdde1
ffff0958:	e7fddef1 	udf	#56801	; 0xdde1
ffff095c:	e7fddef1 	udf	#56801	; 0xdde1
ffff0960:	e7fddef1 	udf	#56801	; 0xdde1
ffff0964:	e7fddef1 	udf	#56801	; 0xdde1
ffff0968:	e7fddef1 	udf	#56801	; 0xdde1
ffff096c:	e7fddef1 	udf	#56801	; 0xdde1
ffff0970:	e7fddef1 	udf	#56801	; 0xdde1
ffff0974:	e7fddef1 	udf	#56801	; 0xdde1
ffff0978:	e7fddef1 	udf	#56801	; 0xdde1
ffff097c:	e7fddef1 	udf	#56801	; 0xdde1
ffff0980:	e7fddef1 	udf	#56801	; 0xdde1
ffff0984:	e7fddef1 	udf	#56801	; 0xdde1
ffff0988:	e7fddef1 	udf	#56801	; 0xdde1
ffff098c:	e7fddef1 	udf	#56801	; 0xdde1
ffff0990:	e7fddef1 	udf	#56801	; 0xdde1
ffff0994:	e7fddef1 	udf	#56801	; 0xdde1
ffff0998:	e7fddef1 	udf	#56801	; 0xdde1
ffff099c:	e7fddef1 	udf	#56801	; 0xdde1
ffff09a0:	e7fddef1 	udf	#56801	; 0xdde1
ffff09a4:	e7fddef1 	udf	#56801	; 0xdde1
ffff09a8:	e7fddef1 	udf	#56801	; 0xdde1
ffff09ac:	e7fddef1 	udf	#56801	; 0xdde1
ffff09b0:	e7fddef1 	udf	#56801	; 0xdde1
ffff09b4:	e7fddef1 	udf	#56801	; 0xdde1
ffff09b8:	e7fddef1 	udf	#56801	; 0xdde1
ffff09bc:	e7fddef1 	udf	#56801	; 0xdde1
ffff09c0:	e7fddef1 	udf	#56801	; 0xdde1
ffff09c4:	e7fddef1 	udf	#56801	; 0xdde1
ffff09c8:	e7fddef1 	udf	#56801	; 0xdde1
ffff09cc:	e7fddef1 	udf	#56801	; 0xdde1
ffff09d0:	e7fddef1 	udf	#56801	; 0xdde1
ffff09d4:	e7fddef1 	udf	#56801	; 0xdde1
ffff09d8:	e7fddef1 	udf	#56801	; 0xdde1
ffff09dc:	e7fddef1 	udf	#56801	; 0xdde1
ffff09e0:	e7fddef1 	udf	#56801	; 0xdde1
ffff09e4:	e7fddef1 	udf	#56801	; 0xdde1
ffff09e8:	e7fddef1 	udf	#56801	; 0xdde1
ffff09ec:	e7fddef1 	udf	#56801	; 0xdde1
ffff09f0:	e7fddef1 	udf	#56801	; 0xdde1
ffff09f4:	e7fddef1 	udf	#56801	; 0xdde1
ffff09f8:	e7fddef1 	udf	#56801	; 0xdde1
ffff09fc:	e7fddef1 	udf	#56801	; 0xdde1
ffff0a00:	e7fddef1 	udf	#56801	; 0xdde1
ffff0a04:	e7fddef1 	udf	#56801	; 0xdde1
ffff0a08:	e7fddef1 	udf	#56801	; 0xdde1
ffff0a0c:	e7fddef1 	udf	#56801	; 0xdde1
ffff0a10:	e7fddef1 	udf	#56801	; 0xdde1
ffff0a14:	e7fddef1 	udf	#56801	; 0xdde1
ffff0a18:	e7fddef1 	udf	#56801	; 0xdde1
ffff0a1c:	e7fddef1 	udf	#56801	; 0xdde1
ffff0a20:	e7fddef1 	udf	#56801	; 0xdde1
ffff0a24:	e7fddef1 	udf	#56801	; 0xdde1
ffff0a28:	e7fddef1 	udf	#56801	; 0xdde1
ffff0a2c:	e7fddef1 	udf	#56801	; 0xdde1
ffff0a30:	e7fddef1 	udf	#56801	; 0xdde1
ffff0a34:	e7fddef1 	udf	#56801	; 0xdde1
ffff0a38:	e7fddef1 	udf	#56801	; 0xdde1
ffff0a3c:	e7fddef1 	udf	#56801	; 0xdde1
ffff0a40:	e7fddef1 	udf	#56801	; 0xdde1
ffff0a44:	e7fddef1 	udf	#56801	; 0xdde1
ffff0a48:	e7fddef1 	udf	#56801	; 0xdde1
ffff0a4c:	e7fddef1 	udf	#56801	; 0xdde1
ffff0a50:	e7fddef1 	udf	#56801	; 0xdde1
ffff0a54:	e7fddef1 	udf	#56801	; 0xdde1
ffff0a58:	e7fddef1 	udf	#56801	; 0xdde1
ffff0a5c:	e7fddef1 	udf	#56801	; 0xdde1
ffff0a60:	e7fddef1 	udf	#56801	; 0xdde1
ffff0a64:	e7fddef1 	udf	#56801	; 0xdde1
ffff0a68:	e7fddef1 	udf	#56801	; 0xdde1
ffff0a6c:	e7fddef1 	udf	#56801	; 0xdde1
ffff0a70:	e7fddef1 	udf	#56801	; 0xdde1
ffff0a74:	e7fddef1 	udf	#56801	; 0xdde1
ffff0a78:	e7fddef1 	udf	#56801	; 0xdde1
ffff0a7c:	e7fddef1 	udf	#56801	; 0xdde1
ffff0a80:	e7fddef1 	udf	#56801	; 0xdde1
ffff0a84:	e7fddef1 	udf	#56801	; 0xdde1
ffff0a88:	e7fddef1 	udf	#56801	; 0xdde1
ffff0a8c:	e7fddef1 	udf	#56801	; 0xdde1
ffff0a90:	e7fddef1 	udf	#56801	; 0xdde1
ffff0a94:	e7fddef1 	udf	#56801	; 0xdde1
ffff0a98:	e7fddef1 	udf	#56801	; 0xdde1
ffff0a9c:	e7fddef1 	udf	#56801	; 0xdde1
ffff0aa0:	e7fddef1 	udf	#56801	; 0xdde1
ffff0aa4:	e7fddef1 	udf	#56801	; 0xdde1
ffff0aa8:	e7fddef1 	udf	#56801	; 0xdde1
ffff0aac:	e7fddef1 	udf	#56801	; 0xdde1
ffff0ab0:	e7fddef1 	udf	#56801	; 0xdde1
ffff0ab4:	e7fddef1 	udf	#56801	; 0xdde1
ffff0ab8:	e7fddef1 	udf	#56801	; 0xdde1
ffff0abc:	e7fddef1 	udf	#56801	; 0xdde1
ffff0ac0:	e7fddef1 	udf	#56801	; 0xdde1
ffff0ac4:	e7fddef1 	udf	#56801	; 0xdde1
ffff0ac8:	e7fddef1 	udf	#56801	; 0xdde1
ffff0acc:	e7fddef1 	udf	#56801	; 0xdde1
ffff0ad0:	e7fddef1 	udf	#56801	; 0xdde1
ffff0ad4:	e7fddef1 	udf	#56801	; 0xdde1
ffff0ad8:	e7fddef1 	udf	#56801	; 0xdde1
ffff0adc:	e7fddef1 	udf	#56801	; 0xdde1
ffff0ae0:	e7fddef1 	udf	#56801	; 0xdde1
ffff0ae4:	e7fddef1 	udf	#56801	; 0xdde1
ffff0ae8:	e7fddef1 	udf	#56801	; 0xdde1
ffff0aec:	e7fddef1 	udf	#56801	; 0xdde1
ffff0af0:	e7fddef1 	udf	#56801	; 0xdde1
ffff0af4:	e7fddef1 	udf	#56801	; 0xdde1
ffff0af8:	e7fddef1 	udf	#56801	; 0xdde1
ffff0afc:	e7fddef1 	udf	#56801	; 0xdde1
ffff0b00:	e7fddef1 	udf	#56801	; 0xdde1
ffff0b04:	e7fddef1 	udf	#56801	; 0xdde1
ffff0b08:	e7fddef1 	udf	#56801	; 0xdde1
ffff0b0c:	e7fddef1 	udf	#56801	; 0xdde1
ffff0b10:	e7fddef1 	udf	#56801	; 0xdde1
ffff0b14:	e7fddef1 	udf	#56801	; 0xdde1
ffff0b18:	e7fddef1 	udf	#56801	; 0xdde1
ffff0b1c:	e7fddef1 	udf	#56801	; 0xdde1
ffff0b20:	e7fddef1 	udf	#56801	; 0xdde1
ffff0b24:	e7fddef1 	udf	#56801	; 0xdde1
ffff0b28:	e7fddef1 	udf	#56801	; 0xdde1
ffff0b2c:	e7fddef1 	udf	#56801	; 0xdde1
ffff0b30:	e7fddef1 	udf	#56801	; 0xdde1
ffff0b34:	e7fddef1 	udf	#56801	; 0xdde1
ffff0b38:	e7fddef1 	udf	#56801	; 0xdde1
ffff0b3c:	e7fddef1 	udf	#56801	; 0xdde1
ffff0b40:	e7fddef1 	udf	#56801	; 0xdde1
ffff0b44:	e7fddef1 	udf	#56801	; 0xdde1
ffff0b48:	e7fddef1 	udf	#56801	; 0xdde1
ffff0b4c:	e7fddef1 	udf	#56801	; 0xdde1
ffff0b50:	e7fddef1 	udf	#56801	; 0xdde1
ffff0b54:	e7fddef1 	udf	#56801	; 0xdde1
ffff0b58:	e7fddef1 	udf	#56801	; 0xdde1
ffff0b5c:	e7fddef1 	udf	#56801	; 0xdde1
ffff0b60:	e7fddef1 	udf	#56801	; 0xdde1
ffff0b64:	e7fddef1 	udf	#56801	; 0xdde1
ffff0b68:	e7fddef1 	udf	#56801	; 0xdde1
ffff0b6c:	e7fddef1 	udf	#56801	; 0xdde1
ffff0b70:	e7fddef1 	udf	#56801	; 0xdde1
ffff0b74:	e7fddef1 	udf	#56801	; 0xdde1
ffff0b78:	e7fddef1 	udf	#56801	; 0xdde1
ffff0b7c:	e7fddef1 	udf	#56801	; 0xdde1
ffff0b80:	e7fddef1 	udf	#56801	; 0xdde1
ffff0b84:	e7fddef1 	udf	#56801	; 0xdde1
ffff0b88:	e7fddef1 	udf	#56801	; 0xdde1
ffff0b8c:	e7fddef1 	udf	#56801	; 0xdde1
ffff0b90:	e7fddef1 	udf	#56801	; 0xdde1
ffff0b94:	e7fddef1 	udf	#56801	; 0xdde1
ffff0b98:	e7fddef1 	udf	#56801	; 0xdde1
ffff0b9c:	e7fddef1 	udf	#56801	; 0xdde1
ffff0ba0:	e7fddef1 	udf	#56801	; 0xdde1
ffff0ba4:	e7fddef1 	udf	#56801	; 0xdde1
ffff0ba8:	e7fddef1 	udf	#56801	; 0xdde1
ffff0bac:	e7fddef1 	udf	#56801	; 0xdde1
ffff0bb0:	e7fddef1 	udf	#56801	; 0xdde1
ffff0bb4:	e7fddef1 	udf	#56801	; 0xdde1
ffff0bb8:	e7fddef1 	udf	#56801	; 0xdde1
ffff0bbc:	e7fddef1 	udf	#56801	; 0xdde1
ffff0bc0:	e7fddef1 	udf	#56801	; 0xdde1
ffff0bc4:	e7fddef1 	udf	#56801	; 0xdde1
ffff0bc8:	e7fddef1 	udf	#56801	; 0xdde1
ffff0bcc:	e7fddef1 	udf	#56801	; 0xdde1
ffff0bd0:	e7fddef1 	udf	#56801	; 0xdde1
ffff0bd4:	e7fddef1 	udf	#56801	; 0xdde1
ffff0bd8:	e7fddef1 	udf	#56801	; 0xdde1
ffff0bdc:	e7fddef1 	udf	#56801	; 0xdde1
ffff0be0:	e7fddef1 	udf	#56801	; 0xdde1
ffff0be4:	e7fddef1 	udf	#56801	; 0xdde1
ffff0be8:	e7fddef1 	udf	#56801	; 0xdde1
ffff0bec:	e7fddef1 	udf	#56801	; 0xdde1
ffff0bf0:	e7fddef1 	udf	#56801	; 0xdde1
ffff0bf4:	e7fddef1 	udf	#56801	; 0xdde1
ffff0bf8:	e7fddef1 	udf	#56801	; 0xdde1
ffff0bfc:	e7fddef1 	udf	#56801	; 0xdde1
ffff0c00:	e7fddef1 	udf	#56801	; 0xdde1
ffff0c04:	e7fddef1 	udf	#56801	; 0xdde1
ffff0c08:	e7fddef1 	udf	#56801	; 0xdde1
ffff0c0c:	e7fddef1 	udf	#56801	; 0xdde1
ffff0c10:	e7fddef1 	udf	#56801	; 0xdde1
ffff0c14:	e7fddef1 	udf	#56801	; 0xdde1
ffff0c18:	e7fddef1 	udf	#56801	; 0xdde1
ffff0c1c:	e7fddef1 	udf	#56801	; 0xdde1
ffff0c20:	e7fddef1 	udf	#56801	; 0xdde1
ffff0c24:	e7fddef1 	udf	#56801	; 0xdde1
ffff0c28:	e7fddef1 	udf	#56801	; 0xdde1
ffff0c2c:	e7fddef1 	udf	#56801	; 0xdde1
ffff0c30:	e7fddef1 	udf	#56801	; 0xdde1
ffff0c34:	e7fddef1 	udf	#56801	; 0xdde1
ffff0c38:	e7fddef1 	udf	#56801	; 0xdde1
ffff0c3c:	e7fddef1 	udf	#56801	; 0xdde1
ffff0c40:	e7fddef1 	udf	#56801	; 0xdde1
ffff0c44:	e7fddef1 	udf	#56801	; 0xdde1
ffff0c48:	e7fddef1 	udf	#56801	; 0xdde1
ffff0c4c:	e7fddef1 	udf	#56801	; 0xdde1
ffff0c50:	e7fddef1 	udf	#56801	; 0xdde1
ffff0c54:	e7fddef1 	udf	#56801	; 0xdde1
ffff0c58:	e7fddef1 	udf	#56801	; 0xdde1
ffff0c5c:	e7fddef1 	udf	#56801	; 0xdde1
ffff0c60:	e7fddef1 	udf	#56801	; 0xdde1
ffff0c64:	e7fddef1 	udf	#56801	; 0xdde1
ffff0c68:	e7fddef1 	udf	#56801	; 0xdde1
ffff0c6c:	e7fddef1 	udf	#56801	; 0xdde1
ffff0c70:	e7fddef1 	udf	#56801	; 0xdde1
ffff0c74:	e7fddef1 	udf	#56801	; 0xdde1
ffff0c78:	e7fddef1 	udf	#56801	; 0xdde1
ffff0c7c:	e7fddef1 	udf	#56801	; 0xdde1
ffff0c80:	e7fddef1 	udf	#56801	; 0xdde1
ffff0c84:	e7fddef1 	udf	#56801	; 0xdde1
ffff0c88:	e7fddef1 	udf	#56801	; 0xdde1
ffff0c8c:	e7fddef1 	udf	#56801	; 0xdde1
ffff0c90:	e7fddef1 	udf	#56801	; 0xdde1
ffff0c94:	e7fddef1 	udf	#56801	; 0xdde1
ffff0c98:	e7fddef1 	udf	#56801	; 0xdde1
ffff0c9c:	e7fddef1 	udf	#56801	; 0xdde1
ffff0ca0:	e7fddef1 	udf	#56801	; 0xdde1
ffff0ca4:	e7fddef1 	udf	#56801	; 0xdde1
ffff0ca8:	e7fddef1 	udf	#56801	; 0xdde1
ffff0cac:	e7fddef1 	udf	#56801	; 0xdde1
ffff0cb0:	e7fddef1 	udf	#56801	; 0xdde1
ffff0cb4:	e7fddef1 	udf	#56801	; 0xdde1
ffff0cb8:	e7fddef1 	udf	#56801	; 0xdde1
ffff0cbc:	e7fddef1 	udf	#56801	; 0xdde1
ffff0cc0:	e7fddef1 	udf	#56801	; 0xdde1
ffff0cc4:	e7fddef1 	udf	#56801	; 0xdde1
ffff0cc8:	e7fddef1 	udf	#56801	; 0xdde1
ffff0ccc:	e7fddef1 	udf	#56801	; 0xdde1
ffff0cd0:	e7fddef1 	udf	#56801	; 0xdde1
ffff0cd4:	e7fddef1 	udf	#56801	; 0xdde1
ffff0cd8:	e7fddef1 	udf	#56801	; 0xdde1
ffff0cdc:	e7fddef1 	udf	#56801	; 0xdde1
ffff0ce0:	e7fddef1 	udf	#56801	; 0xdde1
ffff0ce4:	e7fddef1 	udf	#56801	; 0xdde1
ffff0ce8:	e7fddef1 	udf	#56801	; 0xdde1
ffff0cec:	e7fddef1 	udf	#56801	; 0xdde1
ffff0cf0:	e7fddef1 	udf	#56801	; 0xdde1
ffff0cf4:	e7fddef1 	udf	#56801	; 0xdde1
ffff0cf8:	e7fddef1 	udf	#56801	; 0xdde1
ffff0cfc:	e7fddef1 	udf	#56801	; 0xdde1
ffff0d00:	e7fddef1 	udf	#56801	; 0xdde1
ffff0d04:	e7fddef1 	udf	#56801	; 0xdde1
ffff0d08:	e7fddef1 	udf	#56801	; 0xdde1
ffff0d0c:	e7fddef1 	udf	#56801	; 0xdde1
ffff0d10:	e7fddef1 	udf	#56801	; 0xdde1
ffff0d14:	e7fddef1 	udf	#56801	; 0xdde1
ffff0d18:	e7fddef1 	udf	#56801	; 0xdde1
ffff0d1c:	e7fddef1 	udf	#56801	; 0xdde1
ffff0d20:	e7fddef1 	udf	#56801	; 0xdde1
ffff0d24:	e7fddef1 	udf	#56801	; 0xdde1
ffff0d28:	e7fddef1 	udf	#56801	; 0xdde1
ffff0d2c:	e7fddef1 	udf	#56801	; 0xdde1
ffff0d30:	e7fddef1 	udf	#56801	; 0xdde1
ffff0d34:	e7fddef1 	udf	#56801	; 0xdde1
ffff0d38:	e7fddef1 	udf	#56801	; 0xdde1
ffff0d3c:	e7fddef1 	udf	#56801	; 0xdde1
ffff0d40:	e7fddef1 	udf	#56801	; 0xdde1
ffff0d44:	e7fddef1 	udf	#56801	; 0xdde1
ffff0d48:	e7fddef1 	udf	#56801	; 0xdde1
ffff0d4c:	e7fddef1 	udf	#56801	; 0xdde1
ffff0d50:	e7fddef1 	udf	#56801	; 0xdde1
ffff0d54:	e7fddef1 	udf	#56801	; 0xdde1
ffff0d58:	e7fddef1 	udf	#56801	; 0xdde1
ffff0d5c:	e7fddef1 	udf	#56801	; 0xdde1
ffff0d60:	e7fddef1 	udf	#56801	; 0xdde1
ffff0d64:	e7fddef1 	udf	#56801	; 0xdde1
ffff0d68:	e7fddef1 	udf	#56801	; 0xdde1
ffff0d6c:	e7fddef1 	udf	#56801	; 0xdde1
ffff0d70:	e7fddef1 	udf	#56801	; 0xdde1
ffff0d74:	e7fddef1 	udf	#56801	; 0xdde1
ffff0d78:	e7fddef1 	udf	#56801	; 0xdde1
ffff0d7c:	e7fddef1 	udf	#56801	; 0xdde1
ffff0d80:	e7fddef1 	udf	#56801	; 0xdde1
ffff0d84:	e7fddef1 	udf	#56801	; 0xdde1
ffff0d88:	e7fddef1 	udf	#56801	; 0xdde1
ffff0d8c:	e7fddef1 	udf	#56801	; 0xdde1
ffff0d90:	e7fddef1 	udf	#56801	; 0xdde1
ffff0d94:	e7fddef1 	udf	#56801	; 0xdde1
ffff0d98:	e7fddef1 	udf	#56801	; 0xdde1
ffff0d9c:	e7fddef1 	udf	#56801	; 0xdde1
ffff0da0:	e7fddef1 	udf	#56801	; 0xdde1
ffff0da4:	e7fddef1 	udf	#56801	; 0xdde1
ffff0da8:	e7fddef1 	udf	#56801	; 0xdde1
ffff0dac:	e7fddef1 	udf	#56801	; 0xdde1
ffff0db0:	e7fddef1 	udf	#56801	; 0xdde1
ffff0db4:	e7fddef1 	udf	#56801	; 0xdde1
ffff0db8:	e7fddef1 	udf	#56801	; 0xdde1
ffff0dbc:	e7fddef1 	udf	#56801	; 0xdde1
ffff0dc0:	e7fddef1 	udf	#56801	; 0xdde1
ffff0dc4:	e7fddef1 	udf	#56801	; 0xdde1
ffff0dc8:	e7fddef1 	udf	#56801	; 0xdde1
ffff0dcc:	e7fddef1 	udf	#56801	; 0xdde1
ffff0dd0:	e7fddef1 	udf	#56801	; 0xdde1
ffff0dd4:	e7fddef1 	udf	#56801	; 0xdde1
ffff0dd8:	e7fddef1 	udf	#56801	; 0xdde1
ffff0ddc:	e7fddef1 	udf	#56801	; 0xdde1
ffff0de0:	e7fddef1 	udf	#56801	; 0xdde1
ffff0de4:	e7fddef1 	udf	#56801	; 0xdde1
ffff0de8:	e7fddef1 	udf	#56801	; 0xdde1
ffff0dec:	e7fddef1 	udf	#56801	; 0xdde1
ffff0df0:	e7fddef1 	udf	#56801	; 0xdde1
ffff0df4:	e7fddef1 	udf	#56801	; 0xdde1
ffff0df8:	e7fddef1 	udf	#56801	; 0xdde1
ffff0dfc:	e7fddef1 	udf	#56801	; 0xdde1
ffff0e00:	e7fddef1 	udf	#56801	; 0xdde1
ffff0e04:	e7fddef1 	udf	#56801	; 0xdde1
ffff0e08:	e7fddef1 	udf	#56801	; 0xdde1
ffff0e0c:	e7fddef1 	udf	#56801	; 0xdde1
ffff0e10:	e7fddef1 	udf	#56801	; 0xdde1
ffff0e14:	e7fddef1 	udf	#56801	; 0xdde1
ffff0e18:	e7fddef1 	udf	#56801	; 0xdde1
ffff0e1c:	e7fddef1 	udf	#56801	; 0xdde1
ffff0e20:	e7fddef1 	udf	#56801	; 0xdde1
ffff0e24:	e7fddef1 	udf	#56801	; 0xdde1
ffff0e28:	e7fddef1 	udf	#56801	; 0xdde1
ffff0e2c:	e7fddef1 	udf	#56801	; 0xdde1
ffff0e30:	e7fddef1 	udf	#56801	; 0xdde1
ffff0e34:	e7fddef1 	udf	#56801	; 0xdde1
ffff0e38:	e7fddef1 	udf	#56801	; 0xdde1
ffff0e3c:	e7fddef1 	udf	#56801	; 0xdde1
ffff0e40:	e7fddef1 	udf	#56801	; 0xdde1
ffff0e44:	e7fddef1 	udf	#56801	; 0xdde1
ffff0e48:	e7fddef1 	udf	#56801	; 0xdde1
ffff0e4c:	e7fddef1 	udf	#56801	; 0xdde1
ffff0e50:	e7fddef1 	udf	#56801	; 0xdde1
ffff0e54:	e7fddef1 	udf	#56801	; 0xdde1
ffff0e58:	e7fddef1 	udf	#56801	; 0xdde1
ffff0e5c:	e7fddef1 	udf	#56801	; 0xdde1
ffff0e60:	e7fddef1 	udf	#56801	; 0xdde1
ffff0e64:	e7fddef1 	udf	#56801	; 0xdde1
ffff0e68:	e7fddef1 	udf	#56801	; 0xdde1
ffff0e6c:	e7fddef1 	udf	#56801	; 0xdde1
ffff0e70:	e7fddef1 	udf	#56801	; 0xdde1
ffff0e74:	e7fddef1 	udf	#56801	; 0xdde1
ffff0e78:	e7fddef1 	udf	#56801	; 0xdde1
ffff0e7c:	e7fddef1 	udf	#56801	; 0xdde1
ffff0e80:	e7fddef1 	udf	#56801	; 0xdde1
ffff0e84:	e7fddef1 	udf	#56801	; 0xdde1
ffff0e88:	e7fddef1 	udf	#56801	; 0xdde1
ffff0e8c:	e7fddef1 	udf	#56801	; 0xdde1
ffff0e90:	e7fddef1 	udf	#56801	; 0xdde1
ffff0e94:	e7fddef1 	udf	#56801	; 0xdde1
ffff0e98:	e7fddef1 	udf	#56801	; 0xdde1
ffff0e9c:	e7fddef1 	udf	#56801	; 0xdde1
ffff0ea0:	e7fddef1 	udf	#56801	; 0xdde1
ffff0ea4:	e7fddef1 	udf	#56801	; 0xdde1
ffff0ea8:	e7fddef1 	udf	#56801	; 0xdde1
ffff0eac:	e7fddef1 	udf	#56801	; 0xdde1
ffff0eb0:	e7fddef1 	udf	#56801	; 0xdde1
ffff0eb4:	e7fddef1 	udf	#56801	; 0xdde1
ffff0eb8:	e7fddef1 	udf	#56801	; 0xdde1
ffff0ebc:	e7fddef1 	udf	#56801	; 0xdde1
ffff0ec0:	e7fddef1 	udf	#56801	; 0xdde1
ffff0ec4:	e7fddef1 	udf	#56801	; 0xdde1
ffff0ec8:	e7fddef1 	udf	#56801	; 0xdde1
ffff0ecc:	e7fddef1 	udf	#56801	; 0xdde1
ffff0ed0:	e7fddef1 	udf	#56801	; 0xdde1
ffff0ed4:	e7fddef1 	udf	#56801	; 0xdde1
ffff0ed8:	e7fddef1 	udf	#56801	; 0xdde1
ffff0edc:	e7fddef1 	udf	#56801	; 0xdde1
ffff0ee0:	e7fddef1 	udf	#56801	; 0xdde1
ffff0ee4:	e7fddef1 	udf	#56801	; 0xdde1
ffff0ee8:	e7fddef1 	udf	#56801	; 0xdde1
ffff0eec:	e7fddef1 	udf	#56801	; 0xdde1
ffff0ef0:	e7fddef1 	udf	#56801	; 0xdde1
ffff0ef4:	e7fddef1 	udf	#56801	; 0xdde1
ffff0ef8:	e7fddef1 	udf	#56801	; 0xdde1
ffff0efc:	e7fddef1 	udf	#56801	; 0xdde1
ffff0f00:	e7fddef1 	udf	#56801	; 0xdde1
ffff0f04:	e7fddef1 	udf	#56801	; 0xdde1
ffff0f08:	e7fddef1 	udf	#56801	; 0xdde1
ffff0f0c:	e7fddef1 	udf	#56801	; 0xdde1
ffff0f10:	e7fddef1 	udf	#56801	; 0xdde1
ffff0f14:	e7fddef1 	udf	#56801	; 0xdde1
ffff0f18:	e7fddef1 	udf	#56801	; 0xdde1
ffff0f1c:	e7fddef1 	udf	#56801	; 0xdde1
ffff0f20:	e7fddef1 	udf	#56801	; 0xdde1
ffff0f24:	e7fddef1 	udf	#56801	; 0xdde1
ffff0f28:	e7fddef1 	udf	#56801	; 0xdde1
ffff0f2c:	e7fddef1 	udf	#56801	; 0xdde1
ffff0f30:	e7fddef1 	udf	#56801	; 0xdde1
ffff0f34:	e7fddef1 	udf	#56801	; 0xdde1
ffff0f38:	e7fddef1 	udf	#56801	; 0xdde1
ffff0f3c:	e7fddef1 	udf	#56801	; 0xdde1
ffff0f40:	e7fddef1 	udf	#56801	; 0xdde1
ffff0f44:	e7fddef1 	udf	#56801	; 0xdde1
ffff0f48:	e7fddef1 	udf	#56801	; 0xdde1
ffff0f4c:	e7fddef1 	udf	#56801	; 0xdde1
ffff0f50:	e7fddef1 	udf	#56801	; 0xdde1
ffff0f54:	e7fddef1 	udf	#56801	; 0xdde1
ffff0f58:	e7fddef1 	udf	#56801	; 0xdde1
ffff0f5c:	e7fddef1 	udf	#56801	; 0xdde1
ffff0f60:	e92d00f0 	push	{r4, r5, r6, r7}
ffff0f64:	e1c040d0 	ldrd	r4, [r0]
ffff0f68:	e1c160d0 	ldrd	r6, [r1]
ffff0f6c:	f57ff05b 	dmb	ish
ffff0f70:	e1b20f9f 	ldrexd	r0, [r2]
ffff0f74:	e0303004 	eors	r3, r0, r4
ffff0f78:	00313005 	eorseq	r3, r1, r5
ffff0f7c:	01a23f96 	strexdeq	r3, r6, [r2]
ffff0f80:	03330001 	teqeq	r3, #1
ffff0f84:	0afffff9 	beq	0xffff0f70
ffff0f88:	f57ff05b 	dmb	ish
ffff0f8c:	e2730000 	rsbs	r0, r3, #0
ffff0f90:	e8bd00f0 	pop	{r4, r5, r6, r7}
ffff0f94:	e12fff1e 	bx	lr
ffff0f98:	e7fddef1 	udf	#56801	; 0xdde1
ffff0f9c:	e7fddef1 	udf	#56801	; 0xdde1
ffff0fa0:	f57ff05b 	dmb	ish
ffff0fa4:	e12fff1e 	bx	lr
ffff0fa8:	e7fddef1 	udf	#56801	; 0xdde1
ffff0fac:	e7fddef1 	udf	#56801	; 0xdde1
ffff0fb0:	e7fddef1 	udf	#56801	; 0xdde1
ffff0fb4:	e7fddef1 	udf	#56801	; 0xdde1
ffff0fb8:	e7fddef1 	udf	#56801	; 0xdde1
ffff0fbc:	e7fddef1 	udf	#56801	; 0xdde1
ffff0fc0:	f57ff05b 	dmb	ish
ffff0fc4:	e1923f9f 	ldrex	r3, [r2]
ffff0fc8:	e0533000 	subs	r3, r3, r0
ffff0fcc:	01823f91 	strexeq	r3, r1, [r2]
ffff0fd0:	03330001 	teqeq	r3, #1
ffff0fd4:	0afffffa 	beq	0xffff0fc4
ffff0fd8:	e2730000 	rsbs	r0, r3, #0
ffff0fdc:	eaffffef 	b	0xffff0fa0
ffff0fe0:	ee1d0f70 	mrc	15, 0, r0, cr13, cr0, {3}
ffff0fe4:	e12fff1e 	bx	lr
ffff0fe8:	ee1d0f70 	mrc	15, 0, r0, cr13, cr0, {3}
ffff0fec:	e7fddef1 	udf	#56801	; 0xdde1
	...
ffff0ffc:	00000005 	andeq	r0, r0, r5
